
bop_it_user_input.elf:     file format elf32-avr

Sections:
Idx Name          Size      VMA       LMA       File off  Algn
  0 .data         0000002c  00800100  000015c0  00001654  2**0
                  CONTENTS, ALLOC, LOAD, DATA
  1 .text         000015c0  00000000  00000000  00000094  2**1
                  CONTENTS, ALLOC, LOAD, READONLY, CODE
  2 .bss          00000035  0080012c  0080012c  00001680  2**0
                  ALLOC
  3 .stab         00001bfc  00000000  00000000  00001680  2**2
                  CONTENTS, READONLY, DEBUGGING
  4 .stabstr      0000075e  00000000  00000000  0000327c  2**0
                  CONTENTS, READONLY, DEBUGGING
  5 .debug_aranges 00000040  00000000  00000000  000039da  2**0
                  CONTENTS, READONLY, DEBUGGING
  6 .debug_pubnames 00000562  00000000  00000000  00003a1a  2**0
                  CONTENTS, READONLY, DEBUGGING
  7 .debug_info   00000bba  00000000  00000000  00003f7c  2**0
                  CONTENTS, READONLY, DEBUGGING
  8 .debug_abbrev 0000023f  00000000  00000000  00004b36  2**0
                  CONTENTS, READONLY, DEBUGGING
  9 .debug_line   00000e0b  00000000  00000000  00004d75  2**0
                  CONTENTS, READONLY, DEBUGGING
 10 .debug_frame  00000220  00000000  00000000  00005b80  2**2
                  CONTENTS, READONLY, DEBUGGING
 11 .debug_str    00000618  00000000  00000000  00005da0  2**0
                  CONTENTS, READONLY, DEBUGGING
 12 .debug_pubtypes 00000089  00000000  00000000  000063b8  2**0
                  CONTENTS, READONLY, DEBUGGING

Disassembly of section .text:

00000000 <__vectors>:
       0:	0c 94 46 00 	jmp	0x8c	; 0x8c <__ctors_end>
       4:	0c 94 65 00 	jmp	0xca	; 0xca <__bad_interrupt>
       8:	0c 94 65 00 	jmp	0xca	; 0xca <__bad_interrupt>
       c:	0c 94 65 00 	jmp	0xca	; 0xca <__bad_interrupt>
      10:	0c 94 65 00 	jmp	0xca	; 0xca <__bad_interrupt>
      14:	0c 94 65 00 	jmp	0xca	; 0xca <__bad_interrupt>
      18:	0c 94 65 00 	jmp	0xca	; 0xca <__bad_interrupt>
      1c:	0c 94 65 00 	jmp	0xca	; 0xca <__bad_interrupt>
      20:	0c 94 65 00 	jmp	0xca	; 0xca <__bad_interrupt>
      24:	0c 94 65 00 	jmp	0xca	; 0xca <__bad_interrupt>
      28:	0c 94 65 00 	jmp	0xca	; 0xca <__bad_interrupt>
      2c:	0c 94 65 00 	jmp	0xca	; 0xca <__bad_interrupt>
      30:	0c 94 65 00 	jmp	0xca	; 0xca <__bad_interrupt>
      34:	0c 94 00 04 	jmp	0x800	; 0x800 <__vector_13>
      38:	0c 94 65 00 	jmp	0xca	; 0xca <__bad_interrupt>
      3c:	0c 94 65 00 	jmp	0xca	; 0xca <__bad_interrupt>
      40:	0c 94 65 00 	jmp	0xca	; 0xca <__bad_interrupt>
      44:	0c 94 65 00 	jmp	0xca	; 0xca <__bad_interrupt>
      48:	0c 94 65 00 	jmp	0xca	; 0xca <__bad_interrupt>
      4c:	0c 94 65 00 	jmp	0xca	; 0xca <__bad_interrupt>
      50:	0c 94 65 00 	jmp	0xca	; 0xca <__bad_interrupt>
      54:	0c 94 65 00 	jmp	0xca	; 0xca <__bad_interrupt>
      58:	0c 94 65 00 	jmp	0xca	; 0xca <__bad_interrupt>
      5c:	0c 94 65 00 	jmp	0xca	; 0xca <__bad_interrupt>
      60:	0c 94 65 00 	jmp	0xca	; 0xca <__bad_interrupt>
      64:	0c 94 65 00 	jmp	0xca	; 0xca <__bad_interrupt>
      68:	0c 94 65 00 	jmp	0xca	; 0xca <__bad_interrupt>
      6c:	0c 94 65 00 	jmp	0xca	; 0xca <__bad_interrupt>
      70:	0c 94 65 00 	jmp	0xca	; 0xca <__bad_interrupt>
      74:	0c 94 65 00 	jmp	0xca	; 0xca <__bad_interrupt>
      78:	0c 94 65 00 	jmp	0xca	; 0xca <__bad_interrupt>
      7c:	0c 94 65 00 	jmp	0xca	; 0xca <__bad_interrupt>
      80:	0c 94 65 00 	jmp	0xca	; 0xca <__bad_interrupt>
      84:	0c 94 65 00 	jmp	0xca	; 0xca <__bad_interrupt>
      88:	0c 94 65 00 	jmp	0xca	; 0xca <__bad_interrupt>

0000008c <__ctors_end>:
      8c:	11 24       	eor	r1, r1
      8e:	1f be       	out	0x3f, r1	; 63
      90:	cf ef       	ldi	r28, 0xFF	; 255
      92:	d0 e4       	ldi	r29, 0x40	; 64
      94:	de bf       	out	0x3e, r29	; 62
      96:	cd bf       	out	0x3d, r28	; 61

00000098 <__do_copy_data>:
      98:	11 e0       	ldi	r17, 0x01	; 1
      9a:	a0 e0       	ldi	r26, 0x00	; 0
      9c:	b1 e0       	ldi	r27, 0x01	; 1
      9e:	e0 ec       	ldi	r30, 0xC0	; 192
      a0:	f5 e1       	ldi	r31, 0x15	; 21
      a2:	00 e0       	ldi	r16, 0x00	; 0
      a4:	0b bf       	out	0x3b, r16	; 59
      a6:	02 c0       	rjmp	.+4      	; 0xac <__do_copy_data+0x14>
      a8:	07 90       	elpm	r0, Z+
      aa:	0d 92       	st	X+, r0
      ac:	ac 32       	cpi	r26, 0x2C	; 44
      ae:	b1 07       	cpc	r27, r17
      b0:	d9 f7       	brne	.-10     	; 0xa8 <__do_copy_data+0x10>

000000b2 <__do_clear_bss>:
      b2:	11 e0       	ldi	r17, 0x01	; 1
      b4:	ac e2       	ldi	r26, 0x2C	; 44
      b6:	b1 e0       	ldi	r27, 0x01	; 1
      b8:	01 c0       	rjmp	.+2      	; 0xbc <.do_clear_bss_start>

000000ba <.do_clear_bss_loop>:
      ba:	1d 92       	st	X+, r1

000000bc <.do_clear_bss_start>:
      bc:	a1 36       	cpi	r26, 0x61	; 97
      be:	b1 07       	cpc	r27, r17
      c0:	e1 f7       	brne	.-8      	; 0xba <.do_clear_bss_loop>
      c2:	0e 94 6c 06 	call	0xcd8	; 0xcd8 <main>
      c6:	0c 94 de 0a 	jmp	0x15bc	; 0x15bc <_exit>

000000ca <__bad_interrupt>:
      ca:	0c 94 00 00 	jmp	0	; 0x0 <__vectors>

000000ce <initUSART>:
//Functionality - Initializes TX and RX on PORT D
//Parameter: usartNum specifies which USART is being initialized
//			 If usartNum != 1, default to USART0
//Returns: None
void initUSART(unsigned char usartNum)
{
      ce:	df 93       	push	r29
      d0:	cf 93       	push	r28
      d2:	0f 92       	push	r0
      d4:	cd b7       	in	r28, 0x3d	; 61
      d6:	de b7       	in	r29, 0x3e	; 62
      d8:	89 83       	std	Y+1, r24	; 0x01
	if (usartNum != 1) {
      da:	89 81       	ldd	r24, Y+1	; 0x01
      dc:	81 30       	cpi	r24, 0x01	; 1
      de:	e1 f0       	breq	.+56     	; 0x118 <initUSART+0x4a>
		// Turn on the reception circuitry of USART0
		// Turn on receiver and transmitter
		// Use 8-bit character sizes 
		UCSR0B |= (1 << RXEN0)  | (1 << TXEN0);
      e0:	81 ec       	ldi	r24, 0xC1	; 193
      e2:	90 e0       	ldi	r25, 0x00	; 0
      e4:	21 ec       	ldi	r18, 0xC1	; 193
      e6:	30 e0       	ldi	r19, 0x00	; 0
      e8:	f9 01       	movw	r30, r18
      ea:	20 81       	ld	r18, Z
      ec:	28 61       	ori	r18, 0x18	; 24
      ee:	fc 01       	movw	r30, r24
      f0:	20 83       	st	Z, r18
		UCSR0C |= (1 << UCSZ00) | (1 << UCSZ01);
      f2:	82 ec       	ldi	r24, 0xC2	; 194
      f4:	90 e0       	ldi	r25, 0x00	; 0
      f6:	22 ec       	ldi	r18, 0xC2	; 194
      f8:	30 e0       	ldi	r19, 0x00	; 0
      fa:	f9 01       	movw	r30, r18
      fc:	20 81       	ld	r18, Z
      fe:	26 60       	ori	r18, 0x06	; 6
     100:	fc 01       	movw	r30, r24
     102:	20 83       	st	Z, r18
		// Load lower 8-bits of the baud rate value into the low byte of the UBRR0 register
		UBRR0L = BAUD_PRESCALE;
     104:	84 ec       	ldi	r24, 0xC4	; 196
     106:	90 e0       	ldi	r25, 0x00	; 0
     108:	23 e3       	ldi	r18, 0x33	; 51
     10a:	fc 01       	movw	r30, r24
     10c:	20 83       	st	Z, r18
		// Load upper 8-bits of the baud rate value into the high byte of the UBRR0 register
		UBRR0H = (BAUD_PRESCALE >> 8);
     10e:	85 ec       	ldi	r24, 0xC5	; 197
     110:	90 e0       	ldi	r25, 0x00	; 0
     112:	fc 01       	movw	r30, r24
     114:	10 82       	st	Z, r1
     116:	1b c0       	rjmp	.+54     	; 0x14e <initUSART+0x80>
	}
	else {
		// Turn on the reception circuitry for USART1
		// Turn on receiver and transmitter
		// Use 8-bit character sizes
		UCSR1B |= (1 << RXEN1)  | (1 << TXEN1);
     118:	89 ec       	ldi	r24, 0xC9	; 201
     11a:	90 e0       	ldi	r25, 0x00	; 0
     11c:	29 ec       	ldi	r18, 0xC9	; 201
     11e:	30 e0       	ldi	r19, 0x00	; 0
     120:	f9 01       	movw	r30, r18
     122:	20 81       	ld	r18, Z
     124:	28 61       	ori	r18, 0x18	; 24
     126:	fc 01       	movw	r30, r24
     128:	20 83       	st	Z, r18
		UCSR1C |= (1 << UCSZ10) | (1 << UCSZ11);
     12a:	8a ec       	ldi	r24, 0xCA	; 202
     12c:	90 e0       	ldi	r25, 0x00	; 0
     12e:	2a ec       	ldi	r18, 0xCA	; 202
     130:	30 e0       	ldi	r19, 0x00	; 0
     132:	f9 01       	movw	r30, r18
     134:	20 81       	ld	r18, Z
     136:	26 60       	ori	r18, 0x06	; 6
     138:	fc 01       	movw	r30, r24
     13a:	20 83       	st	Z, r18
		// Load lower 8-bits of the baud rate value into the low byte of the UBRR1 register
		UBRR1L = BAUD_PRESCALE;
     13c:	8c ec       	ldi	r24, 0xCC	; 204
     13e:	90 e0       	ldi	r25, 0x00	; 0
     140:	23 e3       	ldi	r18, 0x33	; 51
     142:	fc 01       	movw	r30, r24
     144:	20 83       	st	Z, r18
		// Load upper 8-bits of the baud rate value into the high byte of the UBRR1 register
		UBRR1H = (BAUD_PRESCALE >> 8);
     146:	8d ec       	ldi	r24, 0xCD	; 205
     148:	90 e0       	ldi	r25, 0x00	; 0
     14a:	fc 01       	movw	r30, r24
     14c:	10 82       	st	Z, r1
	}
}
     14e:	0f 90       	pop	r0
     150:	cf 91       	pop	r28
     152:	df 91       	pop	r29
     154:	08 95       	ret

00000156 <USART_IsSendReady>:
////////////////////////////////////////////////////////////////////////////////
//Functionality - checks if USART is ready to send
//Parameter: usartNum specifies which USART is checked
//Returns: 1 if true else 0
unsigned char USART_IsSendReady(unsigned char usartNum)
{
     156:	df 93       	push	r29
     158:	cf 93       	push	r28
     15a:	0f 92       	push	r0
     15c:	cd b7       	in	r28, 0x3d	; 61
     15e:	de b7       	in	r29, 0x3e	; 62
     160:	89 83       	std	Y+1, r24	; 0x01
	return (usartNum != 1) ? (UCSR0A & (1 << UDRE0)) : (UCSR1A & (1 << UDRE1));
     162:	89 81       	ldd	r24, Y+1	; 0x01
     164:	81 30       	cpi	r24, 0x01	; 1
     166:	31 f0       	breq	.+12     	; 0x174 <USART_IsSendReady+0x1e>
     168:	80 ec       	ldi	r24, 0xC0	; 192
     16a:	90 e0       	ldi	r25, 0x00	; 0
     16c:	fc 01       	movw	r30, r24
     16e:	80 81       	ld	r24, Z
     170:	80 72       	andi	r24, 0x20	; 32
     172:	05 c0       	rjmp	.+10     	; 0x17e <USART_IsSendReady+0x28>
     174:	88 ec       	ldi	r24, 0xC8	; 200
     176:	90 e0       	ldi	r25, 0x00	; 0
     178:	fc 01       	movw	r30, r24
     17a:	80 81       	ld	r24, Z
     17c:	80 72       	andi	r24, 0x20	; 32
}
     17e:	0f 90       	pop	r0
     180:	cf 91       	pop	r28
     182:	df 91       	pop	r29
     184:	08 95       	ret

00000186 <USART_HasTransmitted>:
////////////////////////////////////////////////////////////////////////////////
//Functionality - checks if USART has successfully transmitted data
//Parameter: usartNum specifies which USART is being checked
//Returns: 1 if true else 0
unsigned char USART_HasTransmitted(unsigned char usartNum)
{
     186:	df 93       	push	r29
     188:	cf 93       	push	r28
     18a:	0f 92       	push	r0
     18c:	cd b7       	in	r28, 0x3d	; 61
     18e:	de b7       	in	r29, 0x3e	; 62
     190:	89 83       	std	Y+1, r24	; 0x01
	return (usartNum != 1) ? (UCSR0A & (1 << TXC0)) : (UCSR1A & (1 << TXC1));
     192:	89 81       	ldd	r24, Y+1	; 0x01
     194:	81 30       	cpi	r24, 0x01	; 1
     196:	31 f0       	breq	.+12     	; 0x1a4 <USART_HasTransmitted+0x1e>
     198:	80 ec       	ldi	r24, 0xC0	; 192
     19a:	90 e0       	ldi	r25, 0x00	; 0
     19c:	fc 01       	movw	r30, r24
     19e:	80 81       	ld	r24, Z
     1a0:	80 74       	andi	r24, 0x40	; 64
     1a2:	05 c0       	rjmp	.+10     	; 0x1ae <USART_HasTransmitted+0x28>
     1a4:	88 ec       	ldi	r24, 0xC8	; 200
     1a6:	90 e0       	ldi	r25, 0x00	; 0
     1a8:	fc 01       	movw	r30, r24
     1aa:	80 81       	ld	r24, Z
     1ac:	80 74       	andi	r24, 0x40	; 64
}
     1ae:	0f 90       	pop	r0
     1b0:	cf 91       	pop	r28
     1b2:	df 91       	pop	r29
     1b4:	08 95       	ret

000001b6 <USART_HasReceived>:
// **** WARNING: THIS FUNCTION BLOCKS MULTI-TASKING; USE WITH CAUTION!!! ****
//Functionality - checks if USART has recieved data
//Parameter: usartNum specifies which USART is checked
//Returns: 1 if true else 0
unsigned char USART_HasReceived(unsigned char usartNum)
{
     1b6:	df 93       	push	r29
     1b8:	cf 93       	push	r28
     1ba:	0f 92       	push	r0
     1bc:	cd b7       	in	r28, 0x3d	; 61
     1be:	de b7       	in	r29, 0x3e	; 62
     1c0:	89 83       	std	Y+1, r24	; 0x01
	return (usartNum != 1) ? (UCSR0A & (1 << RXC0)) : (UCSR1A & (1 << RXC1));
     1c2:	89 81       	ldd	r24, Y+1	; 0x01
     1c4:	81 30       	cpi	r24, 0x01	; 1
     1c6:	31 f0       	breq	.+12     	; 0x1d4 <USART_HasReceived+0x1e>
     1c8:	80 ec       	ldi	r24, 0xC0	; 192
     1ca:	90 e0       	ldi	r25, 0x00	; 0
     1cc:	fc 01       	movw	r30, r24
     1ce:	80 81       	ld	r24, Z
     1d0:	80 78       	andi	r24, 0x80	; 128
     1d2:	05 c0       	rjmp	.+10     	; 0x1de <USART_HasReceived+0x28>
     1d4:	88 ec       	ldi	r24, 0xC8	; 200
     1d6:	90 e0       	ldi	r25, 0x00	; 0
     1d8:	fc 01       	movw	r30, r24
     1da:	80 81       	ld	r24, Z
     1dc:	80 78       	andi	r24, 0x80	; 128
}
     1de:	0f 90       	pop	r0
     1e0:	cf 91       	pop	r28
     1e2:	df 91       	pop	r29
     1e4:	08 95       	ret

000001e6 <USART_Flush>:
////////////////////////////////////////////////////////////////////////////////
//Functionality - Flushes the data register
//Parameter: usartNum specifies which USART is flushed
//Returns: None
void USART_Flush(unsigned char usartNum)
{
     1e6:	df 93       	push	r29
     1e8:	cf 93       	push	r28
     1ea:	0f 92       	push	r0
     1ec:	cd b7       	in	r28, 0x3d	; 61
     1ee:	de b7       	in	r29, 0x3e	; 62
     1f0:	89 83       	std	Y+1, r24	; 0x01
	static unsigned char dummy;
	if (usartNum != 1) {
     1f2:	89 81       	ldd	r24, Y+1	; 0x01
     1f4:	81 30       	cpi	r24, 0x01	; 1
     1f6:	a9 f0       	breq	.+42     	; 0x222 <USART_Flush+0x3c>
		while ( UCSR0A & (1 << RXC0) ) { dummy = UDR0; }
     1f8:	06 c0       	rjmp	.+12     	; 0x206 <USART_Flush+0x20>
     1fa:	86 ec       	ldi	r24, 0xC6	; 198
     1fc:	90 e0       	ldi	r25, 0x00	; 0
     1fe:	fc 01       	movw	r30, r24
     200:	80 81       	ld	r24, Z
     202:	80 93 60 01 	sts	0x0160, r24
     206:	80 ec       	ldi	r24, 0xC0	; 192
     208:	90 e0       	ldi	r25, 0x00	; 0
     20a:	fc 01       	movw	r30, r24
     20c:	80 81       	ld	r24, Z
     20e:	88 23       	and	r24, r24
     210:	a4 f3       	brlt	.-24     	; 0x1fa <USART_Flush+0x14>
     212:	0e c0       	rjmp	.+28     	; 0x230 <USART_Flush+0x4a>
	}
	else {
		while ( UCSR1A & (1 << RXC1) ) { dummy = UDR1; }
     214:	8e ec       	ldi	r24, 0xCE	; 206
     216:	90 e0       	ldi	r25, 0x00	; 0
     218:	fc 01       	movw	r30, r24
     21a:	80 81       	ld	r24, Z
     21c:	80 93 60 01 	sts	0x0160, r24
     220:	01 c0       	rjmp	.+2      	; 0x224 <USART_Flush+0x3e>
     222:	00 00       	nop
     224:	88 ec       	ldi	r24, 0xC8	; 200
     226:	90 e0       	ldi	r25, 0x00	; 0
     228:	fc 01       	movw	r30, r24
     22a:	80 81       	ld	r24, Z
     22c:	88 23       	and	r24, r24
     22e:	94 f3       	brlt	.-28     	; 0x214 <USART_Flush+0x2e>
	}
}
     230:	0f 90       	pop	r0
     232:	cf 91       	pop	r28
     234:	df 91       	pop	r29
     236:	08 95       	ret

00000238 <USART_Send>:
//Functionality - Sends an 8-bit char value
//Parameter: Takes a single unsigned char value
//			 usartNum specifies which USART will send the char
//Returns: None
void USART_Send(unsigned char sendMe, unsigned char usartNum)
{
     238:	df 93       	push	r29
     23a:	cf 93       	push	r28
     23c:	00 d0       	rcall	.+0      	; 0x23e <USART_Send+0x6>
     23e:	cd b7       	in	r28, 0x3d	; 61
     240:	de b7       	in	r29, 0x3e	; 62
     242:	89 83       	std	Y+1, r24	; 0x01
     244:	6a 83       	std	Y+2, r22	; 0x02
	if (usartNum != 1) {
     246:	8a 81       	ldd	r24, Y+2	; 0x02
     248:	81 30       	cpi	r24, 0x01	; 1
     24a:	89 f0       	breq	.+34     	; 0x26e <USART_Send+0x36>
		while( !(UCSR0A & (1 << UDRE0)) );
     24c:	00 00       	nop
     24e:	80 ec       	ldi	r24, 0xC0	; 192
     250:	90 e0       	ldi	r25, 0x00	; 0
     252:	fc 01       	movw	r30, r24
     254:	80 81       	ld	r24, Z
     256:	88 2f       	mov	r24, r24
     258:	90 e0       	ldi	r25, 0x00	; 0
     25a:	80 72       	andi	r24, 0x20	; 32
     25c:	90 70       	andi	r25, 0x00	; 0
     25e:	00 97       	sbiw	r24, 0x00	; 0
     260:	b1 f3       	breq	.-20     	; 0x24e <USART_Send+0x16>
		UDR0 = sendMe;
     262:	86 ec       	ldi	r24, 0xC6	; 198
     264:	90 e0       	ldi	r25, 0x00	; 0
     266:	29 81       	ldd	r18, Y+1	; 0x01
     268:	fc 01       	movw	r30, r24
     26a:	20 83       	st	Z, r18
     26c:	10 c0       	rjmp	.+32     	; 0x28e <USART_Send+0x56>
	}
	else {
		while( !(UCSR1A & (1 << UDRE1)) );
     26e:	00 00       	nop
     270:	88 ec       	ldi	r24, 0xC8	; 200
     272:	90 e0       	ldi	r25, 0x00	; 0
     274:	fc 01       	movw	r30, r24
     276:	80 81       	ld	r24, Z
     278:	88 2f       	mov	r24, r24
     27a:	90 e0       	ldi	r25, 0x00	; 0
     27c:	80 72       	andi	r24, 0x20	; 32
     27e:	90 70       	andi	r25, 0x00	; 0
     280:	00 97       	sbiw	r24, 0x00	; 0
     282:	b1 f3       	breq	.-20     	; 0x270 <USART_Send+0x38>
		UDR1 = sendMe;
     284:	8e ec       	ldi	r24, 0xCE	; 206
     286:	90 e0       	ldi	r25, 0x00	; 0
     288:	29 81       	ldd	r18, Y+1	; 0x01
     28a:	fc 01       	movw	r30, r24
     28c:	20 83       	st	Z, r18
	}
}
     28e:	0f 90       	pop	r0
     290:	0f 90       	pop	r0
     292:	cf 91       	pop	r28
     294:	df 91       	pop	r29
     296:	08 95       	ret

00000298 <USART_Receive>:
// **** WARNING: THIS FUNCTION BLOCKS MULTI-TASKING; USE WITH CAUTION!!! ****
//Functionality - receives an 8-bit char value
//Parameter: usartNum specifies which USART is waiting to receive data
//Returns: Unsigned char data from the receive buffer
unsigned char USART_Receive(unsigned char usartNum)
{
     298:	df 93       	push	r29
     29a:	cf 93       	push	r28
     29c:	0f 92       	push	r0
     29e:	cd b7       	in	r28, 0x3d	; 61
     2a0:	de b7       	in	r29, 0x3e	; 62
     2a2:	89 83       	std	Y+1, r24	; 0x01
	if (usartNum != 1) {
     2a4:	89 81       	ldd	r24, Y+1	; 0x01
     2a6:	81 30       	cpi	r24, 0x01	; 1
     2a8:	61 f0       	breq	.+24     	; 0x2c2 <USART_Receive+0x2a>
		while ( !(UCSR0A & (1 << RXC0)) ); // Wait for data to be received
     2aa:	00 00       	nop
     2ac:	80 ec       	ldi	r24, 0xC0	; 192
     2ae:	90 e0       	ldi	r25, 0x00	; 0
     2b0:	fc 01       	movw	r30, r24
     2b2:	80 81       	ld	r24, Z
     2b4:	88 23       	and	r24, r24
     2b6:	d4 f7       	brge	.-12     	; 0x2ac <USART_Receive+0x14>
		return UDR0; // Get and return received data from buffer
     2b8:	86 ec       	ldi	r24, 0xC6	; 198
     2ba:	90 e0       	ldi	r25, 0x00	; 0
     2bc:	fc 01       	movw	r30, r24
     2be:	80 81       	ld	r24, Z
     2c0:	0b c0       	rjmp	.+22     	; 0x2d8 <USART_Receive+0x40>
	}
	else {
		while ( !(UCSR1A & (1 << RXC1)) );
     2c2:	00 00       	nop
     2c4:	88 ec       	ldi	r24, 0xC8	; 200
     2c6:	90 e0       	ldi	r25, 0x00	; 0
     2c8:	fc 01       	movw	r30, r24
     2ca:	80 81       	ld	r24, Z
     2cc:	88 23       	and	r24, r24
     2ce:	d4 f7       	brge	.-12     	; 0x2c4 <USART_Receive+0x2c>
		return UDR1;
     2d0:	8e ec       	ldi	r24, 0xCE	; 206
     2d2:	90 e0       	ldi	r25, 0x00	; 0
     2d4:	fc 01       	movw	r30, r24
     2d6:	80 81       	ld	r24, Z
	}
}
     2d8:	0f 90       	pop	r0
     2da:	cf 91       	pop	r28
     2dc:	df 91       	pop	r29
     2de:	08 95       	ret

000002e0 <SetBit>:

#include <avr/io.h>
#include <avr/interrupt.h>

// Bit-access functions
unsigned char SetBit(unsigned char x, unsigned char k, unsigned char b) {
     2e0:	df 93       	push	r29
     2e2:	cf 93       	push	r28
     2e4:	00 d0       	rcall	.+0      	; 0x2e6 <SetBit+0x6>
     2e6:	0f 92       	push	r0
     2e8:	cd b7       	in	r28, 0x3d	; 61
     2ea:	de b7       	in	r29, 0x3e	; 62
     2ec:	89 83       	std	Y+1, r24	; 0x01
     2ee:	6a 83       	std	Y+2, r22	; 0x02
     2f0:	4b 83       	std	Y+3, r20	; 0x03
	return (b ? x | (0x01 << k) : x & ~(0x01 << k));
     2f2:	8b 81       	ldd	r24, Y+3	; 0x03
     2f4:	88 23       	and	r24, r24
     2f6:	79 f0       	breq	.+30     	; 0x316 <SetBit+0x36>
     2f8:	8a 81       	ldd	r24, Y+2	; 0x02
     2fa:	28 2f       	mov	r18, r24
     2fc:	30 e0       	ldi	r19, 0x00	; 0
     2fe:	81 e0       	ldi	r24, 0x01	; 1
     300:	90 e0       	ldi	r25, 0x00	; 0
     302:	02 2e       	mov	r0, r18
     304:	02 c0       	rjmp	.+4      	; 0x30a <SetBit+0x2a>
     306:	88 0f       	add	r24, r24
     308:	99 1f       	adc	r25, r25
     30a:	0a 94       	dec	r0
     30c:	e2 f7       	brpl	.-8      	; 0x306 <SetBit+0x26>
     30e:	98 2f       	mov	r25, r24
     310:	89 81       	ldd	r24, Y+1	; 0x01
     312:	89 2b       	or	r24, r25
     314:	0f c0       	rjmp	.+30     	; 0x334 <SetBit+0x54>
     316:	8a 81       	ldd	r24, Y+2	; 0x02
     318:	28 2f       	mov	r18, r24
     31a:	30 e0       	ldi	r19, 0x00	; 0
     31c:	81 e0       	ldi	r24, 0x01	; 1
     31e:	90 e0       	ldi	r25, 0x00	; 0
     320:	02 2e       	mov	r0, r18
     322:	02 c0       	rjmp	.+4      	; 0x328 <SetBit+0x48>
     324:	88 0f       	add	r24, r24
     326:	99 1f       	adc	r25, r25
     328:	0a 94       	dec	r0
     32a:	e2 f7       	brpl	.-8      	; 0x324 <SetBit+0x44>
     32c:	98 2f       	mov	r25, r24
     32e:	90 95       	com	r25
     330:	89 81       	ldd	r24, Y+1	; 0x01
     332:	89 23       	and	r24, r25
}
     334:	0f 90       	pop	r0
     336:	0f 90       	pop	r0
     338:	0f 90       	pop	r0
     33a:	cf 91       	pop	r28
     33c:	df 91       	pop	r29
     33e:	08 95       	ret

00000340 <GetBit>:
unsigned char GetBit(unsigned char x, unsigned char k) {
     340:	df 93       	push	r29
     342:	cf 93       	push	r28
     344:	00 d0       	rcall	.+0      	; 0x346 <GetBit+0x6>
     346:	cd b7       	in	r28, 0x3d	; 61
     348:	de b7       	in	r29, 0x3e	; 62
     34a:	89 83       	std	Y+1, r24	; 0x01
     34c:	6a 83       	std	Y+2, r22	; 0x02
	return ((x & (0x01 << k)) != 0);
     34e:	89 81       	ldd	r24, Y+1	; 0x01
     350:	88 2f       	mov	r24, r24
     352:	90 e0       	ldi	r25, 0x00	; 0
     354:	2a 81       	ldd	r18, Y+2	; 0x02
     356:	22 2f       	mov	r18, r18
     358:	30 e0       	ldi	r19, 0x00	; 0
     35a:	02 2e       	mov	r0, r18
     35c:	02 c0       	rjmp	.+4      	; 0x362 <GetBit+0x22>
     35e:	95 95       	asr	r25
     360:	87 95       	ror	r24
     362:	0a 94       	dec	r0
     364:	e2 f7       	brpl	.-8      	; 0x35e <GetBit+0x1e>
     366:	81 70       	andi	r24, 0x01	; 1
}
     368:	0f 90       	pop	r0
     36a:	0f 90       	pop	r0
     36c:	cf 91       	pop	r28
     36e:	df 91       	pop	r29
     370:	08 95       	ret

00000372 <GetKeypadKey>:

unsigned char GetKeypadKey() {
     372:	df 93       	push	r29
     374:	cf 93       	push	r28
     376:	cd b7       	in	r28, 0x3d	; 61
     378:	de b7       	in	r29, 0x3e	; 62
	// Check keys in col 1
	// Enable col 4 with 0, disable others with 1’s
	// The delay allows PORTC to stabilize before checking
	PORTC = 0xEF;
     37a:	88 e2       	ldi	r24, 0x28	; 40
     37c:	90 e0       	ldi	r25, 0x00	; 0
     37e:	2f ee       	ldi	r18, 0xEF	; 239
     380:	fc 01       	movw	r30, r24
     382:	20 83       	st	Z, r18
	asm("nop");
     384:	00 00       	nop
	if (GetBit(PINC,0)==0) { return('1'); }
     386:	86 e2       	ldi	r24, 0x26	; 38
     388:	90 e0       	ldi	r25, 0x00	; 0
     38a:	fc 01       	movw	r30, r24
     38c:	80 81       	ld	r24, Z
     38e:	60 e0       	ldi	r22, 0x00	; 0
     390:	0e 94 a0 01 	call	0x340	; 0x340 <GetBit>
     394:	88 23       	and	r24, r24
     396:	11 f4       	brne	.+4      	; 0x39c <GetKeypadKey+0x2a>
     398:	81 e3       	ldi	r24, 0x31	; 49
     39a:	b8 c0       	rjmp	.+368    	; 0x50c <GetKeypadKey+0x19a>
	if (GetBit(PINC,1)==0) { return('4'); }
     39c:	86 e2       	ldi	r24, 0x26	; 38
     39e:	90 e0       	ldi	r25, 0x00	; 0
     3a0:	fc 01       	movw	r30, r24
     3a2:	80 81       	ld	r24, Z
     3a4:	61 e0       	ldi	r22, 0x01	; 1
     3a6:	0e 94 a0 01 	call	0x340	; 0x340 <GetBit>
     3aa:	88 23       	and	r24, r24
     3ac:	11 f4       	brne	.+4      	; 0x3b2 <GetKeypadKey+0x40>
     3ae:	84 e3       	ldi	r24, 0x34	; 52
     3b0:	ad c0       	rjmp	.+346    	; 0x50c <GetKeypadKey+0x19a>
	if (GetBit(PINC,2)==0) { return('7'); }
     3b2:	86 e2       	ldi	r24, 0x26	; 38
     3b4:	90 e0       	ldi	r25, 0x00	; 0
     3b6:	fc 01       	movw	r30, r24
     3b8:	80 81       	ld	r24, Z
     3ba:	62 e0       	ldi	r22, 0x02	; 2
     3bc:	0e 94 a0 01 	call	0x340	; 0x340 <GetBit>
     3c0:	88 23       	and	r24, r24
     3c2:	11 f4       	brne	.+4      	; 0x3c8 <GetKeypadKey+0x56>
     3c4:	87 e3       	ldi	r24, 0x37	; 55
     3c6:	a2 c0       	rjmp	.+324    	; 0x50c <GetKeypadKey+0x19a>
	if (GetBit(PINC,3)==0) { return('*'); }
     3c8:	86 e2       	ldi	r24, 0x26	; 38
     3ca:	90 e0       	ldi	r25, 0x00	; 0
     3cc:	fc 01       	movw	r30, r24
     3ce:	80 81       	ld	r24, Z
     3d0:	63 e0       	ldi	r22, 0x03	; 3
     3d2:	0e 94 a0 01 	call	0x340	; 0x340 <GetBit>
     3d6:	88 23       	and	r24, r24
     3d8:	11 f4       	brne	.+4      	; 0x3de <GetKeypadKey+0x6c>
     3da:	8a e2       	ldi	r24, 0x2A	; 42
     3dc:	97 c0       	rjmp	.+302    	; 0x50c <GetKeypadKey+0x19a>
	// Check keys in col 2
	// Enable col 5 with 0, disable others with 1’s
	// The delay allows PORTC to stabilize before checking
	PORTC = 0xDF;
     3de:	88 e2       	ldi	r24, 0x28	; 40
     3e0:	90 e0       	ldi	r25, 0x00	; 0
     3e2:	2f ed       	ldi	r18, 0xDF	; 223
     3e4:	fc 01       	movw	r30, r24
     3e6:	20 83       	st	Z, r18
	asm("nop");
     3e8:	00 00       	nop
	if (GetBit(PINC,0)==0) { return('2'); }
     3ea:	86 e2       	ldi	r24, 0x26	; 38
     3ec:	90 e0       	ldi	r25, 0x00	; 0
     3ee:	fc 01       	movw	r30, r24
     3f0:	80 81       	ld	r24, Z
     3f2:	60 e0       	ldi	r22, 0x00	; 0
     3f4:	0e 94 a0 01 	call	0x340	; 0x340 <GetBit>
     3f8:	88 23       	and	r24, r24
     3fa:	11 f4       	brne	.+4      	; 0x400 <GetKeypadKey+0x8e>
     3fc:	82 e3       	ldi	r24, 0x32	; 50
     3fe:	86 c0       	rjmp	.+268    	; 0x50c <GetKeypadKey+0x19a>
	if (GetBit(PINC,1)==0) { return('5'); }
     400:	86 e2       	ldi	r24, 0x26	; 38
     402:	90 e0       	ldi	r25, 0x00	; 0
     404:	fc 01       	movw	r30, r24
     406:	80 81       	ld	r24, Z
     408:	61 e0       	ldi	r22, 0x01	; 1
     40a:	0e 94 a0 01 	call	0x340	; 0x340 <GetBit>
     40e:	88 23       	and	r24, r24
     410:	11 f4       	brne	.+4      	; 0x416 <GetKeypadKey+0xa4>
     412:	85 e3       	ldi	r24, 0x35	; 53
     414:	7b c0       	rjmp	.+246    	; 0x50c <GetKeypadKey+0x19a>
	if (GetBit(PINC,2)==0) { return('8'); }
     416:	86 e2       	ldi	r24, 0x26	; 38
     418:	90 e0       	ldi	r25, 0x00	; 0
     41a:	fc 01       	movw	r30, r24
     41c:	80 81       	ld	r24, Z
     41e:	62 e0       	ldi	r22, 0x02	; 2
     420:	0e 94 a0 01 	call	0x340	; 0x340 <GetBit>
     424:	88 23       	and	r24, r24
     426:	11 f4       	brne	.+4      	; 0x42c <GetKeypadKey+0xba>
     428:	88 e3       	ldi	r24, 0x38	; 56
     42a:	70 c0       	rjmp	.+224    	; 0x50c <GetKeypadKey+0x19a>
	if (GetBit(PINC,3)==0) { return('0'); }
     42c:	86 e2       	ldi	r24, 0x26	; 38
     42e:	90 e0       	ldi	r25, 0x00	; 0
     430:	fc 01       	movw	r30, r24
     432:	80 81       	ld	r24, Z
     434:	63 e0       	ldi	r22, 0x03	; 3
     436:	0e 94 a0 01 	call	0x340	; 0x340 <GetBit>
     43a:	88 23       	and	r24, r24
     43c:	11 f4       	brne	.+4      	; 0x442 <GetKeypadKey+0xd0>
     43e:	80 e3       	ldi	r24, 0x30	; 48
     440:	65 c0       	rjmp	.+202    	; 0x50c <GetKeypadKey+0x19a>
	// ... *****FINISH*****
	// Check keys in col 3
	// Enable col 6 with 0, disable others with 1’s
	// The delay allows PORTC to stabilize before checking
	PORTC = 0xBF;
     442:	88 e2       	ldi	r24, 0x28	; 40
     444:	90 e0       	ldi	r25, 0x00	; 0
     446:	2f eb       	ldi	r18, 0xBF	; 191
     448:	fc 01       	movw	r30, r24
     44a:	20 83       	st	Z, r18
	asm("nop");
     44c:	00 00       	nop
	if (GetBit(PINC,0)==0) { return('3'); }
     44e:	86 e2       	ldi	r24, 0x26	; 38
     450:	90 e0       	ldi	r25, 0x00	; 0
     452:	fc 01       	movw	r30, r24
     454:	80 81       	ld	r24, Z
     456:	60 e0       	ldi	r22, 0x00	; 0
     458:	0e 94 a0 01 	call	0x340	; 0x340 <GetBit>
     45c:	88 23       	and	r24, r24
     45e:	11 f4       	brne	.+4      	; 0x464 <GetKeypadKey+0xf2>
     460:	83 e3       	ldi	r24, 0x33	; 51
     462:	54 c0       	rjmp	.+168    	; 0x50c <GetKeypadKey+0x19a>
	if (GetBit(PINC,1)==0) { return('6'); }
     464:	86 e2       	ldi	r24, 0x26	; 38
     466:	90 e0       	ldi	r25, 0x00	; 0
     468:	fc 01       	movw	r30, r24
     46a:	80 81       	ld	r24, Z
     46c:	61 e0       	ldi	r22, 0x01	; 1
     46e:	0e 94 a0 01 	call	0x340	; 0x340 <GetBit>
     472:	88 23       	and	r24, r24
     474:	11 f4       	brne	.+4      	; 0x47a <GetKeypadKey+0x108>
     476:	86 e3       	ldi	r24, 0x36	; 54
     478:	49 c0       	rjmp	.+146    	; 0x50c <GetKeypadKey+0x19a>
	if (GetBit(PINC,2)==0) { return('9'); }
     47a:	86 e2       	ldi	r24, 0x26	; 38
     47c:	90 e0       	ldi	r25, 0x00	; 0
     47e:	fc 01       	movw	r30, r24
     480:	80 81       	ld	r24, Z
     482:	62 e0       	ldi	r22, 0x02	; 2
     484:	0e 94 a0 01 	call	0x340	; 0x340 <GetBit>
     488:	88 23       	and	r24, r24
     48a:	11 f4       	brne	.+4      	; 0x490 <GetKeypadKey+0x11e>
     48c:	89 e3       	ldi	r24, 0x39	; 57
     48e:	3e c0       	rjmp	.+124    	; 0x50c <GetKeypadKey+0x19a>
	if (GetBit(PINC,3)==0) { return('#'); }
     490:	86 e2       	ldi	r24, 0x26	; 38
     492:	90 e0       	ldi	r25, 0x00	; 0
     494:	fc 01       	movw	r30, r24
     496:	80 81       	ld	r24, Z
     498:	63 e0       	ldi	r22, 0x03	; 3
     49a:	0e 94 a0 01 	call	0x340	; 0x340 <GetBit>
     49e:	88 23       	and	r24, r24
     4a0:	11 f4       	brne	.+4      	; 0x4a6 <GetKeypadKey+0x134>
     4a2:	83 e2       	ldi	r24, 0x23	; 35
     4a4:	33 c0       	rjmp	.+102    	; 0x50c <GetKeypadKey+0x19a>
		
	PORTC = 0x7F;
     4a6:	88 e2       	ldi	r24, 0x28	; 40
     4a8:	90 e0       	ldi	r25, 0x00	; 0
     4aa:	2f e7       	ldi	r18, 0x7F	; 127
     4ac:	fc 01       	movw	r30, r24
     4ae:	20 83       	st	Z, r18
	asm("nop");
     4b0:	00 00       	nop
	if (GetBit(PINC,0)==0) { return('A'); }
     4b2:	86 e2       	ldi	r24, 0x26	; 38
     4b4:	90 e0       	ldi	r25, 0x00	; 0
     4b6:	fc 01       	movw	r30, r24
     4b8:	80 81       	ld	r24, Z
     4ba:	60 e0       	ldi	r22, 0x00	; 0
     4bc:	0e 94 a0 01 	call	0x340	; 0x340 <GetBit>
     4c0:	88 23       	and	r24, r24
     4c2:	11 f4       	brne	.+4      	; 0x4c8 <GetKeypadKey+0x156>
     4c4:	81 e4       	ldi	r24, 0x41	; 65
     4c6:	22 c0       	rjmp	.+68     	; 0x50c <GetKeypadKey+0x19a>
	if (GetBit(PINC,1)==0) { return('B'); }
     4c8:	86 e2       	ldi	r24, 0x26	; 38
     4ca:	90 e0       	ldi	r25, 0x00	; 0
     4cc:	fc 01       	movw	r30, r24
     4ce:	80 81       	ld	r24, Z
     4d0:	61 e0       	ldi	r22, 0x01	; 1
     4d2:	0e 94 a0 01 	call	0x340	; 0x340 <GetBit>
     4d6:	88 23       	and	r24, r24
     4d8:	11 f4       	brne	.+4      	; 0x4de <GetKeypadKey+0x16c>
     4da:	82 e4       	ldi	r24, 0x42	; 66
     4dc:	17 c0       	rjmp	.+46     	; 0x50c <GetKeypadKey+0x19a>
	if (GetBit(PINC,2)==0) { return('C'); }
     4de:	86 e2       	ldi	r24, 0x26	; 38
     4e0:	90 e0       	ldi	r25, 0x00	; 0
     4e2:	fc 01       	movw	r30, r24
     4e4:	80 81       	ld	r24, Z
     4e6:	62 e0       	ldi	r22, 0x02	; 2
     4e8:	0e 94 a0 01 	call	0x340	; 0x340 <GetBit>
     4ec:	88 23       	and	r24, r24
     4ee:	11 f4       	brne	.+4      	; 0x4f4 <GetKeypadKey+0x182>
     4f0:	83 e4       	ldi	r24, 0x43	; 67
     4f2:	0c c0       	rjmp	.+24     	; 0x50c <GetKeypadKey+0x19a>
	if (GetBit(PINC,3)==0) { return('D'); }
     4f4:	86 e2       	ldi	r24, 0x26	; 38
     4f6:	90 e0       	ldi	r25, 0x00	; 0
     4f8:	fc 01       	movw	r30, r24
     4fa:	80 81       	ld	r24, Z
     4fc:	63 e0       	ldi	r22, 0x03	; 3
     4fe:	0e 94 a0 01 	call	0x340	; 0x340 <GetBit>
     502:	88 23       	and	r24, r24
     504:	11 f4       	brne	.+4      	; 0x50a <GetKeypadKey+0x198>
     506:	84 e4       	ldi	r24, 0x44	; 68
     508:	01 c0       	rjmp	.+2      	; 0x50c <GetKeypadKey+0x19a>
	// ... *****FINISH*****
	return('\0'); // default value
     50a:	80 e0       	ldi	r24, 0x00	; 0
}
     50c:	cf 91       	pop	r28
     50e:	df 91       	pop	r29
     510:	08 95       	ret

00000512 <findGCD>:

//--------Find GCD function -------------------------------
unsigned long int findGCD (unsigned long int a, unsigned long int b)
{
     512:	df 93       	push	r29
     514:	cf 93       	push	r28
     516:	cd b7       	in	r28, 0x3d	; 61
     518:	de b7       	in	r29, 0x3e	; 62
     51a:	2c 97       	sbiw	r28, 0x0c	; 12
     51c:	0f b6       	in	r0, 0x3f	; 63
     51e:	f8 94       	cli
     520:	de bf       	out	0x3e, r29	; 62
     522:	0f be       	out	0x3f, r0	; 63
     524:	cd bf       	out	0x3d, r28	; 61
     526:	6d 83       	std	Y+5, r22	; 0x05
     528:	7e 83       	std	Y+6, r23	; 0x06
     52a:	8f 83       	std	Y+7, r24	; 0x07
     52c:	98 87       	std	Y+8, r25	; 0x08
     52e:	29 87       	std	Y+9, r18	; 0x09
     530:	3a 87       	std	Y+10, r19	; 0x0a
     532:	4b 87       	std	Y+11, r20	; 0x0b
     534:	5c 87       	std	Y+12, r21	; 0x0c
	unsigned long int c;
	while(1){
	c = a%b;
     536:	8d 81       	ldd	r24, Y+5	; 0x05
     538:	9e 81       	ldd	r25, Y+6	; 0x06
     53a:	af 81       	ldd	r26, Y+7	; 0x07
     53c:	b8 85       	ldd	r27, Y+8	; 0x08
     53e:	29 85       	ldd	r18, Y+9	; 0x09
     540:	3a 85       	ldd	r19, Y+10	; 0x0a
     542:	4b 85       	ldd	r20, Y+11	; 0x0b
     544:	5c 85       	ldd	r21, Y+12	; 0x0c
     546:	bc 01       	movw	r22, r24
     548:	cd 01       	movw	r24, r26
     54a:	0e 94 bc 0a 	call	0x1578	; 0x1578 <__udivmodsi4>
     54e:	dc 01       	movw	r26, r24
     550:	cb 01       	movw	r24, r22
     552:	89 83       	std	Y+1, r24	; 0x01
     554:	9a 83       	std	Y+2, r25	; 0x02
     556:	ab 83       	std	Y+3, r26	; 0x03
     558:	bc 83       	std	Y+4, r27	; 0x04
	if(c==0){return b;}
     55a:	89 81       	ldd	r24, Y+1	; 0x01
     55c:	9a 81       	ldd	r25, Y+2	; 0x02
     55e:	ab 81       	ldd	r26, Y+3	; 0x03
     560:	bc 81       	ldd	r27, Y+4	; 0x04
     562:	00 97       	sbiw	r24, 0x00	; 0
     564:	a1 05       	cpc	r26, r1
     566:	b1 05       	cpc	r27, r1
     568:	79 f4       	brne	.+30     	; 0x588 <findGCD+0x76>
     56a:	89 85       	ldd	r24, Y+9	; 0x09
     56c:	9a 85       	ldd	r25, Y+10	; 0x0a
     56e:	ab 85       	ldd	r26, Y+11	; 0x0b
     570:	bc 85       	ldd	r27, Y+12	; 0x0c
	a = b;
	b = c;
	}
	return 0;
}
     572:	bc 01       	movw	r22, r24
     574:	cd 01       	movw	r24, r26
     576:	2c 96       	adiw	r28, 0x0c	; 12
     578:	0f b6       	in	r0, 0x3f	; 63
     57a:	f8 94       	cli
     57c:	de bf       	out	0x3e, r29	; 62
     57e:	0f be       	out	0x3f, r0	; 63
     580:	cd bf       	out	0x3d, r28	; 61
     582:	cf 91       	pop	r28
     584:	df 91       	pop	r29
     586:	08 95       	ret
{
	unsigned long int c;
	while(1){
	c = a%b;
	if(c==0){return b;}
	a = b;
     588:	89 85       	ldd	r24, Y+9	; 0x09
     58a:	9a 85       	ldd	r25, Y+10	; 0x0a
     58c:	ab 85       	ldd	r26, Y+11	; 0x0b
     58e:	bc 85       	ldd	r27, Y+12	; 0x0c
     590:	8d 83       	std	Y+5, r24	; 0x05
     592:	9e 83       	std	Y+6, r25	; 0x06
     594:	af 83       	std	Y+7, r26	; 0x07
     596:	b8 87       	std	Y+8, r27	; 0x08
	b = c;
     598:	89 81       	ldd	r24, Y+1	; 0x01
     59a:	9a 81       	ldd	r25, Y+2	; 0x02
     59c:	ab 81       	ldd	r26, Y+3	; 0x03
     59e:	bc 81       	ldd	r27, Y+4	; 0x04
     5a0:	89 87       	std	Y+9, r24	; 0x09
     5a2:	9a 87       	std	Y+10, r25	; 0x0a
     5a4:	ab 87       	std	Y+11, r26	; 0x0b
     5a6:	bc 87       	std	Y+12, r27	; 0x0c
	}
     5a8:	c6 cf       	rjmp	.-116    	; 0x536 <findGCD+0x24>

000005aa <ADC_init>:
	return 0;
}

void ADC_init() {
     5aa:	df 93       	push	r29
     5ac:	cf 93       	push	r28
     5ae:	cd b7       	in	r28, 0x3d	; 61
     5b0:	de b7       	in	r29, 0x3e	; 62
	ADCSRA |= (1 << ADEN) | (1 << ADSC) | (1 << ADATE);
     5b2:	8a e7       	ldi	r24, 0x7A	; 122
     5b4:	90 e0       	ldi	r25, 0x00	; 0
     5b6:	2a e7       	ldi	r18, 0x7A	; 122
     5b8:	30 e0       	ldi	r19, 0x00	; 0
     5ba:	f9 01       	movw	r30, r18
     5bc:	20 81       	ld	r18, Z
     5be:	20 6e       	ori	r18, 0xE0	; 224
     5c0:	fc 01       	movw	r30, r24
     5c2:	20 83       	st	Z, r18
	// ADEN: setting this bit enables analog-to-digital conversion.
	// ADSC: setting this bit starts the first conversion.
	// ADATE: setting this bit enables auto-triggering. Since we are
	// in Free Running Mode, a new conversion will trigger
	// whenever the previous conversion completes.
}
     5c4:	cf 91       	pop	r28
     5c6:	df 91       	pop	r29
     5c8:	08 95       	ret

000005ca <set_PWM>:
	
void set_PWM(double frequency) {
     5ca:	0f 93       	push	r16
     5cc:	1f 93       	push	r17
     5ce:	df 93       	push	r29
     5d0:	cf 93       	push	r28
     5d2:	00 d0       	rcall	.+0      	; 0x5d4 <set_PWM+0xa>
     5d4:	00 d0       	rcall	.+0      	; 0x5d6 <set_PWM+0xc>
     5d6:	cd b7       	in	r28, 0x3d	; 61
     5d8:	de b7       	in	r29, 0x3e	; 62
     5da:	69 83       	std	Y+1, r22	; 0x01
     5dc:	7a 83       	std	Y+2, r23	; 0x02
     5de:	8b 83       	std	Y+3, r24	; 0x03
     5e0:	9c 83       	std	Y+4, r25	; 0x04
	
	// Keeps track of the currently set frequency
  // Will only update the registers when the frequency
  // changes, plays music uninterrupted.
	static double current_frequency;
	if (frequency != current_frequency) {
     5e2:	20 91 5c 01 	lds	r18, 0x015C
     5e6:	30 91 5d 01 	lds	r19, 0x015D
     5ea:	40 91 5e 01 	lds	r20, 0x015E
     5ee:	50 91 5f 01 	lds	r21, 0x015F
     5f2:	69 81       	ldd	r22, Y+1	; 0x01
     5f4:	7a 81       	ldd	r23, Y+2	; 0x02
     5f6:	8b 81       	ldd	r24, Y+3	; 0x03
     5f8:	9c 81       	ldd	r25, Y+4	; 0x04
     5fa:	0e 94 43 09 	call	0x1286	; 0x1286 <__cmpsf2>
     5fe:	88 23       	and	r24, r24
     600:	09 f4       	brne	.+2      	; 0x604 <set_PWM+0x3a>
     602:	85 c0       	rjmp	.+266    	; 0x70e <set_PWM+0x144>

		if (!frequency) TCCR3B &= 0x08; //stops timer/counter
     604:	11 e0       	ldi	r17, 0x01	; 1
     606:	69 81       	ldd	r22, Y+1	; 0x01
     608:	7a 81       	ldd	r23, Y+2	; 0x02
     60a:	8b 81       	ldd	r24, Y+3	; 0x03
     60c:	9c 81       	ldd	r25, Y+4	; 0x04
     60e:	20 e0       	ldi	r18, 0x00	; 0
     610:	30 e0       	ldi	r19, 0x00	; 0
     612:	a9 01       	movw	r20, r18
     614:	0e 94 43 09 	call	0x1286	; 0x1286 <__cmpsf2>
     618:	88 23       	and	r24, r24
     61a:	09 f4       	brne	.+2      	; 0x61e <set_PWM+0x54>
     61c:	10 e0       	ldi	r17, 0x00	; 0
     61e:	81 e0       	ldi	r24, 0x01	; 1
     620:	81 27       	eor	r24, r17
     622:	88 23       	and	r24, r24
     624:	51 f0       	breq	.+20     	; 0x63a <set_PWM+0x70>
     626:	81 e9       	ldi	r24, 0x91	; 145
     628:	90 e0       	ldi	r25, 0x00	; 0
     62a:	21 e9       	ldi	r18, 0x91	; 145
     62c:	30 e0       	ldi	r19, 0x00	; 0
     62e:	f9 01       	movw	r30, r18
     630:	20 81       	ld	r18, Z
     632:	28 70       	andi	r18, 0x08	; 8
     634:	fc 01       	movw	r30, r24
     636:	20 83       	st	Z, r18
     638:	09 c0       	rjmp	.+18     	; 0x64c <set_PWM+0x82>
		else TCCR3B |= 0x03; // resumes/continues timer/counter
     63a:	81 e9       	ldi	r24, 0x91	; 145
     63c:	90 e0       	ldi	r25, 0x00	; 0
     63e:	21 e9       	ldi	r18, 0x91	; 145
     640:	30 e0       	ldi	r19, 0x00	; 0
     642:	f9 01       	movw	r30, r18
     644:	20 81       	ld	r18, Z
     646:	23 60       	ori	r18, 0x03	; 3
     648:	fc 01       	movw	r30, r24
     64a:	20 83       	st	Z, r18
	
		// prevents OCR3A from overflowing, using prescaler 64
		// 0.954 is smallest frequency that will not result in overflow
		if (frequency < 0.954) OCR3A = 0xFFFF;
     64c:	11 e0       	ldi	r17, 0x01	; 1
     64e:	69 81       	ldd	r22, Y+1	; 0x01
     650:	7a 81       	ldd	r23, Y+2	; 0x02
     652:	8b 81       	ldd	r24, Y+3	; 0x03
     654:	9c 81       	ldd	r25, Y+4	; 0x04
     656:	28 e5       	ldi	r18, 0x58	; 88
     658:	39 e3       	ldi	r19, 0x39	; 57
     65a:	44 e7       	ldi	r20, 0x74	; 116
     65c:	5f e3       	ldi	r21, 0x3F	; 63
     65e:	0e 94 43 09 	call	0x1286	; 0x1286 <__cmpsf2>
     662:	88 23       	and	r24, r24
     664:	0c f0       	brlt	.+2      	; 0x668 <set_PWM+0x9e>
     666:	10 e0       	ldi	r17, 0x00	; 0
     668:	11 23       	and	r17, r17
     66a:	41 f0       	breq	.+16     	; 0x67c <set_PWM+0xb2>
     66c:	88 e9       	ldi	r24, 0x98	; 152
     66e:	90 e0       	ldi	r25, 0x00	; 0
     670:	2f ef       	ldi	r18, 0xFF	; 255
     672:	3f ef       	ldi	r19, 0xFF	; 255
     674:	fc 01       	movw	r30, r24
     676:	31 83       	std	Z+1, r19	; 0x01
     678:	20 83       	st	Z, r18
     67a:	38 c0       	rjmp	.+112    	; 0x6ec <set_PWM+0x122>
	
		// prevents OCR3A from underflowing, using prescaler 64					// 31250 is largest frequency that will not result in underflow
		else if (frequency > 31250) OCR3A = 0x0000;
     67c:	11 e0       	ldi	r17, 0x01	; 1
     67e:	69 81       	ldd	r22, Y+1	; 0x01
     680:	7a 81       	ldd	r23, Y+2	; 0x02
     682:	8b 81       	ldd	r24, Y+3	; 0x03
     684:	9c 81       	ldd	r25, Y+4	; 0x04
     686:	20 e0       	ldi	r18, 0x00	; 0
     688:	34 e2       	ldi	r19, 0x24	; 36
     68a:	44 ef       	ldi	r20, 0xF4	; 244
     68c:	56 e4       	ldi	r21, 0x46	; 70
     68e:	0e 94 55 0a 	call	0x14aa	; 0x14aa <__gesf2>
     692:	18 16       	cp	r1, r24
     694:	0c f0       	brlt	.+2      	; 0x698 <set_PWM+0xce>
     696:	10 e0       	ldi	r17, 0x00	; 0
     698:	11 23       	and	r17, r17
     69a:	31 f0       	breq	.+12     	; 0x6a8 <set_PWM+0xde>
     69c:	88 e9       	ldi	r24, 0x98	; 152
     69e:	90 e0       	ldi	r25, 0x00	; 0
     6a0:	fc 01       	movw	r30, r24
     6a2:	11 82       	std	Z+1, r1	; 0x01
     6a4:	10 82       	st	Z, r1
     6a6:	22 c0       	rjmp	.+68     	; 0x6ec <set_PWM+0x122>
	
		// set OCR3A based on desired frequency
		else OCR3A = (short)(8000000 / (128 * frequency)) - 1;
     6a8:	08 e9       	ldi	r16, 0x98	; 152
     6aa:	10 e0       	ldi	r17, 0x00	; 0
     6ac:	69 81       	ldd	r22, Y+1	; 0x01
     6ae:	7a 81       	ldd	r23, Y+2	; 0x02
     6b0:	8b 81       	ldd	r24, Y+3	; 0x03
     6b2:	9c 81       	ldd	r25, Y+4	; 0x04
     6b4:	20 e0       	ldi	r18, 0x00	; 0
     6b6:	30 e0       	ldi	r19, 0x00	; 0
     6b8:	40 e0       	ldi	r20, 0x00	; 0
     6ba:	53 e4       	ldi	r21, 0x43	; 67
     6bc:	0e 94 59 0a 	call	0x14b2	; 0x14b2 <__mulsf3>
     6c0:	dc 01       	movw	r26, r24
     6c2:	cb 01       	movw	r24, r22
     6c4:	9c 01       	movw	r18, r24
     6c6:	ad 01       	movw	r20, r26
     6c8:	60 e0       	ldi	r22, 0x00	; 0
     6ca:	74 e2       	ldi	r23, 0x24	; 36
     6cc:	84 ef       	ldi	r24, 0xF4	; 244
     6ce:	9a e4       	ldi	r25, 0x4A	; 74
     6d0:	0e 94 47 09 	call	0x128e	; 0x128e <__divsf3>
     6d4:	dc 01       	movw	r26, r24
     6d6:	cb 01       	movw	r24, r22
     6d8:	bc 01       	movw	r22, r24
     6da:	cd 01       	movw	r24, r26
     6dc:	0e 94 af 09 	call	0x135e	; 0x135e <__fixsfsi>
     6e0:	dc 01       	movw	r26, r24
     6e2:	cb 01       	movw	r24, r22
     6e4:	01 97       	sbiw	r24, 0x01	; 1
     6e6:	f8 01       	movw	r30, r16
     6e8:	91 83       	std	Z+1, r25	; 0x01
     6ea:	80 83       	st	Z, r24

		TCNT3 = 0; // resets counter
     6ec:	84 e9       	ldi	r24, 0x94	; 148
     6ee:	90 e0       	ldi	r25, 0x00	; 0
     6f0:	fc 01       	movw	r30, r24
     6f2:	11 82       	std	Z+1, r1	; 0x01
     6f4:	10 82       	st	Z, r1
		current_frequency = frequency;
     6f6:	89 81       	ldd	r24, Y+1	; 0x01
     6f8:	9a 81       	ldd	r25, Y+2	; 0x02
     6fa:	ab 81       	ldd	r26, Y+3	; 0x03
     6fc:	bc 81       	ldd	r27, Y+4	; 0x04
     6fe:	80 93 5c 01 	sts	0x015C, r24
     702:	90 93 5d 01 	sts	0x015D, r25
     706:	a0 93 5e 01 	sts	0x015E, r26
     70a:	b0 93 5f 01 	sts	0x015F, r27
		}
}
     70e:	0f 90       	pop	r0
     710:	0f 90       	pop	r0
     712:	0f 90       	pop	r0
     714:	0f 90       	pop	r0
     716:	cf 91       	pop	r28
     718:	df 91       	pop	r29
     71a:	1f 91       	pop	r17
     71c:	0f 91       	pop	r16
     71e:	08 95       	ret

00000720 <PWM_on>:

void PWM_on() {
     720:	df 93       	push	r29
     722:	cf 93       	push	r28
     724:	cd b7       	in	r28, 0x3d	; 61
     726:	de b7       	in	r29, 0x3e	; 62
	TCCR3A = (1 << COM3A0);
     728:	80 e9       	ldi	r24, 0x90	; 144
     72a:	90 e0       	ldi	r25, 0x00	; 0
     72c:	20 e4       	ldi	r18, 0x40	; 64
     72e:	fc 01       	movw	r30, r24
     730:	20 83       	st	Z, r18
	// COM3A0: Toggle PB6 on compare match between counter and OCR3A
	TCCR3B = (1 << WGM32) | (1 << CS31) | (1 << CS30);
     732:	81 e9       	ldi	r24, 0x91	; 145
     734:	90 e0       	ldi	r25, 0x00	; 0
     736:	2b e0       	ldi	r18, 0x0B	; 11
     738:	fc 01       	movw	r30, r24
     73a:	20 83       	st	Z, r18
	// WGM32: When counter (TCNT3) matches OCR3A, reset counter
	// CS31 & CS30: Set a prescaler of 64
	set_PWM(0);
     73c:	60 e0       	ldi	r22, 0x00	; 0
     73e:	70 e0       	ldi	r23, 0x00	; 0
     740:	cb 01       	movw	r24, r22
     742:	0e 94 e5 02 	call	0x5ca	; 0x5ca <set_PWM>
}
     746:	cf 91       	pop	r28
     748:	df 91       	pop	r29
     74a:	08 95       	ret

0000074c <PWM_off>:

void PWM_off() {
     74c:	df 93       	push	r29
     74e:	cf 93       	push	r28
     750:	cd b7       	in	r28, 0x3d	; 61
     752:	de b7       	in	r29, 0x3e	; 62
	TCCR3A = 0x00;
     754:	80 e9       	ldi	r24, 0x90	; 144
     756:	90 e0       	ldi	r25, 0x00	; 0
     758:	fc 01       	movw	r30, r24
     75a:	10 82       	st	Z, r1
	TCCR3B = 0x00;
     75c:	81 e9       	ldi	r24, 0x91	; 145
     75e:	90 e0       	ldi	r25, 0x00	; 0
     760:	fc 01       	movw	r30, r24
     762:	10 82       	st	Z, r1
}
     764:	cf 91       	pop	r28
     766:	df 91       	pop	r29
     768:	08 95       	ret

0000076a <TimerOn>:
volatile unsigned char TimerFlag = 0;
// Internal variables for mapping AVR's ISR to our cleaner TimerISR model.
unsigned long _avr_timer_M = 1; // Start count from here, down to 0. Default 1 ms.
unsigned long _avr_timer_cntcurr = 0; // Current internal count of 1ms ticks

void TimerOn() {
     76a:	df 93       	push	r29
     76c:	cf 93       	push	r28
     76e:	cd b7       	in	r28, 0x3d	; 61
     770:	de b7       	in	r29, 0x3e	; 62
	// bit3 = 0: CTC mode (clear timer on compare)
	// bit2bit1bit0=011: pre-scaler /64
	// 00001011: 0x0B
	// SO, 8 MHz clock or 8,000,000 /64 = 125,000 ticks/s
	// Thus, TCNT1 register will count at 125,000 ticks/s
	TCCR1B = 0x0B;
     772:	81 e8       	ldi	r24, 0x81	; 129
     774:	90 e0       	ldi	r25, 0x00	; 0
     776:	2b e0       	ldi	r18, 0x0B	; 11
     778:	fc 01       	movw	r30, r24
     77a:	20 83       	st	Z, r18
	// AVR output compare register OCR1A.
	// Timer interrupt will be generated when TCNT1==OCR1A
	// We want a 1 ms tick. 0.001 s * 125,000 ticks/s = 125
	// So when TCNT1 register equals 125,
	// 1 ms has passed. Thus, we compare to 125.
	OCR1A = 125;// AVR timer interrupt mask register
     77c:	88 e8       	ldi	r24, 0x88	; 136
     77e:	90 e0       	ldi	r25, 0x00	; 0
     780:	2d e7       	ldi	r18, 0x7D	; 125
     782:	30 e0       	ldi	r19, 0x00	; 0
     784:	fc 01       	movw	r30, r24
     786:	31 83       	std	Z+1, r19	; 0x01
     788:	20 83       	st	Z, r18
	// bit1: OCIE1A -- enables compare match interrupt
	TIMSK1 = 0x02;
     78a:	8f e6       	ldi	r24, 0x6F	; 111
     78c:	90 e0       	ldi	r25, 0x00	; 0
     78e:	22 e0       	ldi	r18, 0x02	; 2
     790:	fc 01       	movw	r30, r24
     792:	20 83       	st	Z, r18
	//Initialize avr counter
	TCNT1=0;
     794:	84 e8       	ldi	r24, 0x84	; 132
     796:	90 e0       	ldi	r25, 0x00	; 0
     798:	fc 01       	movw	r30, r24
     79a:	11 82       	std	Z+1, r1	; 0x01
     79c:	10 82       	st	Z, r1
	// TimerISR will be called every _avr_timer_cntcurr milliseconds
	_avr_timer_cntcurr = _avr_timer_M;
     79e:	80 91 00 01 	lds	r24, 0x0100
     7a2:	90 91 01 01 	lds	r25, 0x0101
     7a6:	a0 91 02 01 	lds	r26, 0x0102
     7aa:	b0 91 03 01 	lds	r27, 0x0103
     7ae:	80 93 2d 01 	sts	0x012D, r24
     7b2:	90 93 2e 01 	sts	0x012E, r25
     7b6:	a0 93 2f 01 	sts	0x012F, r26
     7ba:	b0 93 30 01 	sts	0x0130, r27
	//Enable global interrupts: 0x80: 1000000
	SREG |= 0x80;
     7be:	8f e5       	ldi	r24, 0x5F	; 95
     7c0:	90 e0       	ldi	r25, 0x00	; 0
     7c2:	2f e5       	ldi	r18, 0x5F	; 95
     7c4:	30 e0       	ldi	r19, 0x00	; 0
     7c6:	f9 01       	movw	r30, r18
     7c8:	20 81       	ld	r18, Z
     7ca:	20 68       	ori	r18, 0x80	; 128
     7cc:	fc 01       	movw	r30, r24
     7ce:	20 83       	st	Z, r18
}
     7d0:	cf 91       	pop	r28
     7d2:	df 91       	pop	r29
     7d4:	08 95       	ret

000007d6 <TimerOff>:

void TimerOff() {
     7d6:	df 93       	push	r29
     7d8:	cf 93       	push	r28
     7da:	cd b7       	in	r28, 0x3d	; 61
     7dc:	de b7       	in	r29, 0x3e	; 62
	// bit3bit1bit0=000: timer off
	TCCR1B = 0x00;
     7de:	81 e8       	ldi	r24, 0x81	; 129
     7e0:	90 e0       	ldi	r25, 0x00	; 0
     7e2:	fc 01       	movw	r30, r24
     7e4:	10 82       	st	Z, r1
}
     7e6:	cf 91       	pop	r28
     7e8:	df 91       	pop	r29
     7ea:	08 95       	ret

000007ec <TimerISR>:

void TimerISR() {
     7ec:	df 93       	push	r29
     7ee:	cf 93       	push	r28
     7f0:	cd b7       	in	r28, 0x3d	; 61
     7f2:	de b7       	in	r29, 0x3e	; 62
	TimerFlag = 1;
     7f4:	81 e0       	ldi	r24, 0x01	; 1
     7f6:	80 93 2c 01 	sts	0x012C, r24
}
     7fa:	cf 91       	pop	r28
     7fc:	df 91       	pop	r29
     7fe:	08 95       	ret

00000800 <__vector_13>:

// In our approach, the C programmer does not touch this ISR, but rather TimerISR()
ISR(TIMER1_COMPA_vect) {
     800:	1f 92       	push	r1
     802:	0f 92       	push	r0
     804:	0f b6       	in	r0, 0x3f	; 63
     806:	0f 92       	push	r0
     808:	00 90 5b 00 	lds	r0, 0x005B
     80c:	0f 92       	push	r0
     80e:	11 24       	eor	r1, r1
     810:	2f 93       	push	r18
     812:	3f 93       	push	r19
     814:	4f 93       	push	r20
     816:	5f 93       	push	r21
     818:	6f 93       	push	r22
     81a:	7f 93       	push	r23
     81c:	8f 93       	push	r24
     81e:	9f 93       	push	r25
     820:	af 93       	push	r26
     822:	bf 93       	push	r27
     824:	ef 93       	push	r30
     826:	ff 93       	push	r31
     828:	df 93       	push	r29
     82a:	cf 93       	push	r28
     82c:	cd b7       	in	r28, 0x3d	; 61
     82e:	de b7       	in	r29, 0x3e	; 62
	// CPU automatically calls when TCNT1 == OCR1
	// (every 1 ms per TimerOn settings)
	// Count down to 0 rather than up to TOP (results in a more efficient comparison)
	_avr_timer_cntcurr--;
     830:	80 91 2d 01 	lds	r24, 0x012D
     834:	90 91 2e 01 	lds	r25, 0x012E
     838:	a0 91 2f 01 	lds	r26, 0x012F
     83c:	b0 91 30 01 	lds	r27, 0x0130
     840:	01 97       	sbiw	r24, 0x01	; 1
     842:	a1 09       	sbc	r26, r1
     844:	b1 09       	sbc	r27, r1
     846:	80 93 2d 01 	sts	0x012D, r24
     84a:	90 93 2e 01 	sts	0x012E, r25
     84e:	a0 93 2f 01 	sts	0x012F, r26
     852:	b0 93 30 01 	sts	0x0130, r27
	if (_avr_timer_cntcurr == 0) {
     856:	80 91 2d 01 	lds	r24, 0x012D
     85a:	90 91 2e 01 	lds	r25, 0x012E
     85e:	a0 91 2f 01 	lds	r26, 0x012F
     862:	b0 91 30 01 	lds	r27, 0x0130
     866:	00 97       	sbiw	r24, 0x00	; 0
     868:	a1 05       	cpc	r26, r1
     86a:	b1 05       	cpc	r27, r1
     86c:	91 f4       	brne	.+36     	; 0x892 <__vector_13+0x92>
		// Call the ISR that the user uses
		TimerISR();
     86e:	0e 94 f6 03 	call	0x7ec	; 0x7ec <TimerISR>
		_avr_timer_cntcurr = _avr_timer_M;
     872:	80 91 00 01 	lds	r24, 0x0100
     876:	90 91 01 01 	lds	r25, 0x0101
     87a:	a0 91 02 01 	lds	r26, 0x0102
     87e:	b0 91 03 01 	lds	r27, 0x0103
     882:	80 93 2d 01 	sts	0x012D, r24
     886:	90 93 2e 01 	sts	0x012E, r25
     88a:	a0 93 2f 01 	sts	0x012F, r26
     88e:	b0 93 30 01 	sts	0x0130, r27
	}
}
     892:	cf 91       	pop	r28
     894:	df 91       	pop	r29
     896:	ff 91       	pop	r31
     898:	ef 91       	pop	r30
     89a:	bf 91       	pop	r27
     89c:	af 91       	pop	r26
     89e:	9f 91       	pop	r25
     8a0:	8f 91       	pop	r24
     8a2:	7f 91       	pop	r23
     8a4:	6f 91       	pop	r22
     8a6:	5f 91       	pop	r21
     8a8:	4f 91       	pop	r20
     8aa:	3f 91       	pop	r19
     8ac:	2f 91       	pop	r18
     8ae:	0f 90       	pop	r0
     8b0:	00 92 5b 00 	sts	0x005B, r0
     8b4:	0f 90       	pop	r0
     8b6:	0f be       	out	0x3f, r0	; 63
     8b8:	0f 90       	pop	r0
     8ba:	1f 90       	pop	r1
     8bc:	18 95       	reti

000008be <TimerSet>:

// Set TimerISR() to tick every M ms
void TimerSet(unsigned long M) {
     8be:	df 93       	push	r29
     8c0:	cf 93       	push	r28
     8c2:	00 d0       	rcall	.+0      	; 0x8c4 <TimerSet+0x6>
     8c4:	00 d0       	rcall	.+0      	; 0x8c6 <TimerSet+0x8>
     8c6:	cd b7       	in	r28, 0x3d	; 61
     8c8:	de b7       	in	r29, 0x3e	; 62
     8ca:	69 83       	std	Y+1, r22	; 0x01
     8cc:	7a 83       	std	Y+2, r23	; 0x02
     8ce:	8b 83       	std	Y+3, r24	; 0x03
     8d0:	9c 83       	std	Y+4, r25	; 0x04
	_avr_timer_M = M;
     8d2:	89 81       	ldd	r24, Y+1	; 0x01
     8d4:	9a 81       	ldd	r25, Y+2	; 0x02
     8d6:	ab 81       	ldd	r26, Y+3	; 0x03
     8d8:	bc 81       	ldd	r27, Y+4	; 0x04
     8da:	80 93 00 01 	sts	0x0100, r24
     8de:	90 93 01 01 	sts	0x0101, r25
     8e2:	a0 93 02 01 	sts	0x0102, r26
     8e6:	b0 93 03 01 	sts	0x0103, r27
	_avr_timer_cntcurr = _avr_timer_M;
     8ea:	80 91 00 01 	lds	r24, 0x0100
     8ee:	90 91 01 01 	lds	r25, 0x0101
     8f2:	a0 91 02 01 	lds	r26, 0x0102
     8f6:	b0 91 03 01 	lds	r27, 0x0103
     8fa:	80 93 2d 01 	sts	0x012D, r24
     8fe:	90 93 2e 01 	sts	0x012E, r25
     902:	a0 93 2f 01 	sts	0x012F, r26
     906:	b0 93 30 01 	sts	0x0130, r27
}
     90a:	0f 90       	pop	r0
     90c:	0f 90       	pop	r0
     90e:	0f 90       	pop	r0
     910:	0f 90       	pop	r0
     912:	cf 91       	pop	r28
     914:	df 91       	pop	r29
     916:	08 95       	ret

00000918 <sendMessage>:
unsigned char keypad_value = 0x00;
unsigned char const DEVICE_LCD = 0x00;
unsigned char const DEVICE_SEVENSEG = 0x80;
//--------End Shared Variables-----------------------------

void sendMessage(unsigned char device, unsigned char message) {
     918:	df 93       	push	r29
     91a:	cf 93       	push	r28
     91c:	00 d0       	rcall	.+0      	; 0x91e <sendMessage+0x6>
     91e:	cd b7       	in	r28, 0x3d	; 61
     920:	de b7       	in	r29, 0x3e	; 62
     922:	89 83       	std	Y+1, r24	; 0x01
     924:	6a 83       	std	Y+2, r22	; 0x02
	//device seven seg = 0x80
	//device lcd = 0x00
	if (USART_IsSendReady(0)) {
     926:	80 e0       	ldi	r24, 0x00	; 0
     928:	0e 94 ab 00 	call	0x156	; 0x156 <USART_IsSendReady>
     92c:	88 23       	and	r24, r24
     92e:	31 f0       	breq	.+12     	; 0x93c <sendMessage+0x24>
		USART_Send(device | message, 0);
     930:	99 81       	ldd	r25, Y+1	; 0x01
     932:	8a 81       	ldd	r24, Y+2	; 0x02
     934:	89 2b       	or	r24, r25
     936:	60 e0       	ldi	r22, 0x00	; 0
     938:	0e 94 1c 01 	call	0x238	; 0x238 <USART_Send>
	}
}
     93c:	0f 90       	pop	r0
     93e:	0f 90       	pop	r0
     940:	cf 91       	pop	r28
     942:	df 91       	pop	r29
     944:	08 95       	ret

00000946 <SMTick1>:

//--------User defined FSMs--------------------------------
// get user input from devices
enum SM1_States { SM1_start };
int SMTick1(int state) {
     946:	df 93       	push	r29
     948:	cf 93       	push	r28
     94a:	00 d0       	rcall	.+0      	; 0x94c <SMTick1+0x6>
     94c:	00 d0       	rcall	.+0      	; 0x94e <SMTick1+0x8>
     94e:	0f 92       	push	r0
     950:	cd b7       	in	r28, 0x3d	; 61
     952:	de b7       	in	r29, 0x3e	; 62
     954:	9d 83       	std	Y+5, r25	; 0x05
     956:	8c 83       	std	Y+4, r24	; 0x04
	unsigned char a = 0x00;
     958:	19 82       	std	Y+1, r1	; 0x01
	unsigned char b = 0x00;
     95a:	1a 82       	std	Y+2, r1	; 0x02
	unsigned char keypad_temp = 0x00;
     95c:	1b 82       	std	Y+3, r1	; 0x03
	
	//State machine transitions
	switch (state) {
     95e:	8c 81       	ldd	r24, Y+4	; 0x04
     960:	9d 81       	ldd	r25, Y+5	; 0x05
     962:	00 97       	sbiw	r24, 0x00	; 0
     964:	19 f4       	brne	.+6      	; 0x96c <SMTick1+0x26>
		case SM1_start:
			state = SM1_start;
     966:	1d 82       	std	Y+5, r1	; 0x05
     968:	1c 82       	std	Y+4, r1	; 0x04
			break;
     96a:	03 c0       	rjmp	.+6      	; 0x972 <SMTick1+0x2c>
		default:
			state = SM1_start;
     96c:	1d 82       	std	Y+5, r1	; 0x05
     96e:	1c 82       	std	Y+4, r1	; 0x04
			break;
     970:	00 00       	nop
	}
	//State machine actions
	switch(state) {
     972:	8c 81       	ldd	r24, Y+4	; 0x04
     974:	9d 81       	ldd	r25, Y+5	; 0x05
     976:	00 97       	sbiw	r24, 0x00	; 0
     978:	09 f0       	breq	.+2      	; 0x97c <SMTick1+0x36>
     97a:	83 c0       	rjmp	.+262    	; 0xa82 <SMTick1+0x13c>
		case SM1_start: 
			a = PINA;	
     97c:	80 e2       	ldi	r24, 0x20	; 32
     97e:	90 e0       	ldi	r25, 0x00	; 0
     980:	fc 01       	movw	r30, r24
     982:	80 81       	ld	r24, Z
     984:	89 83       	std	Y+1, r24	; 0x01
			b = ~PINB;
     986:	83 e2       	ldi	r24, 0x23	; 35
     988:	90 e0       	ldi	r25, 0x00	; 0
     98a:	fc 01       	movw	r30, r24
     98c:	80 81       	ld	r24, Z
     98e:	80 95       	com	r24
     990:	8a 83       	std	Y+2, r24	; 0x02
			
			//light_sensor = GetBit(a, 0);
			spin_knob = GetBit(a, 1);
     992:	89 81       	ldd	r24, Y+1	; 0x01
     994:	61 e0       	ldi	r22, 0x01	; 1
     996:	0e 94 a0 01 	call	0x340	; 0x340 <GetBit>
     99a:	80 93 36 01 	sts	0x0136, r24
			
			button1 = GetBit(b, 0);
     99e:	8a 81       	ldd	r24, Y+2	; 0x02
     9a0:	60 e0       	ldi	r22, 0x00	; 0
     9a2:	0e 94 a0 01 	call	0x340	; 0x340 <GetBit>
     9a6:	80 93 31 01 	sts	0x0131, r24
			button2 = GetBit(b, 1);
     9aa:	8a 81       	ldd	r24, Y+2	; 0x02
     9ac:	61 e0       	ldi	r22, 0x01	; 1
     9ae:	0e 94 a0 01 	call	0x340	; 0x340 <GetBit>
     9b2:	80 93 32 01 	sts	0x0132, r24
			button3 = GetBit(b, 2);
     9b6:	8a 81       	ldd	r24, Y+2	; 0x02
     9b8:	62 e0       	ldi	r22, 0x02	; 2
     9ba:	0e 94 a0 01 	call	0x340	; 0x340 <GetBit>
     9be:	80 93 33 01 	sts	0x0133, r24
			button4 = GetBit(b, 3);
     9c2:	8a 81       	ldd	r24, Y+2	; 0x02
     9c4:	63 e0       	ldi	r22, 0x03	; 3
     9c6:	0e 94 a0 01 	call	0x340	; 0x340 <GetBit>
     9ca:	80 93 34 01 	sts	0x0134, r24
			button5 = GetBit(b, 4);
     9ce:	8a 81       	ldd	r24, Y+2	; 0x02
     9d0:	64 e0       	ldi	r22, 0x04	; 4
     9d2:	0e 94 a0 01 	call	0x340	; 0x340 <GetBit>
     9d6:	80 93 35 01 	sts	0x0135, r24
			keypad_temp = GetKeypadKey();
     9da:	0e 94 b9 01 	call	0x372	; 0x372 <GetKeypadKey>
     9de:	8b 83       	std	Y+3, r24	; 0x03
			
			if (keypad_temp != '\0') {
     9e0:	8b 81       	ldd	r24, Y+3	; 0x03
     9e2:	88 23       	and	r24, r24
     9e4:	09 f4       	brne	.+2      	; 0x9e8 <SMTick1+0xa2>
     9e6:	49 c0       	rjmp	.+146    	; 0xa7a <SMTick1+0x134>
				if (keypad_temp == '7') {
     9e8:	8b 81       	ldd	r24, Y+3	; 0x03
     9ea:	87 33       	cpi	r24, 0x37	; 55
     9ec:	19 f4       	brne	.+6      	; 0x9f4 <SMTick1+0xae>
					keypad_value = 0x00;
     9ee:	10 92 3a 01 	sts	0x013A, r1
					keypad_value = 0x0A;
				}
			} else {
				keypad_value = 0x0B;
			}
			break;
     9f2:	48 c0       	rjmp	.+144    	; 0xa84 <SMTick1+0x13e>
			keypad_temp = GetKeypadKey();
			
			if (keypad_temp != '\0') {
				if (keypad_temp == '7') {
					keypad_value = 0x00;
				} else if (keypad_temp == 'D') { 
     9f4:	8b 81       	ldd	r24, Y+3	; 0x03
     9f6:	84 34       	cpi	r24, 0x44	; 68
     9f8:	21 f4       	brne	.+8      	; 0xa02 <SMTick1+0xbc>
					keypad_value = 0x01;
     9fa:	81 e0       	ldi	r24, 0x01	; 1
     9fc:	80 93 3a 01 	sts	0x013A, r24
					keypad_value = 0x0A;
				}
			} else {
				keypad_value = 0x0B;
			}
			break;
     a00:	41 c0       	rjmp	.+130    	; 0xa84 <SMTick1+0x13e>
			if (keypad_temp != '\0') {
				if (keypad_temp == '7') {
					keypad_value = 0x00;
				} else if (keypad_temp == 'D') { 
					keypad_value = 0x01;
				} else if (keypad_temp == 'C') { 
     a02:	8b 81       	ldd	r24, Y+3	; 0x03
     a04:	83 34       	cpi	r24, 0x43	; 67
     a06:	21 f4       	brne	.+8      	; 0xa10 <SMTick1+0xca>
					keypad_value = 0x02;
     a08:	82 e0       	ldi	r24, 0x02	; 2
     a0a:	80 93 3a 01 	sts	0x013A, r24
					keypad_value = 0x0A;
				}
			} else {
				keypad_value = 0x0B;
			}
			break;
     a0e:	3a c0       	rjmp	.+116    	; 0xa84 <SMTick1+0x13e>
					keypad_value = 0x00;
				} else if (keypad_temp == 'D') { 
					keypad_value = 0x01;
				} else if (keypad_temp == 'C') { 
					keypad_value = 0x02;
				} else if (keypad_temp == 'B') {
     a10:	8b 81       	ldd	r24, Y+3	; 0x03
     a12:	82 34       	cpi	r24, 0x42	; 66
     a14:	21 f4       	brne	.+8      	; 0xa1e <SMTick1+0xd8>
					keypad_value = 0x03; 
     a16:	83 e0       	ldi	r24, 0x03	; 3
     a18:	80 93 3a 01 	sts	0x013A, r24
					keypad_value = 0x0A;
				}
			} else {
				keypad_value = 0x0B;
			}
			break;
     a1c:	33 c0       	rjmp	.+102    	; 0xa84 <SMTick1+0x13e>
					keypad_value = 0x01;
				} else if (keypad_temp == 'C') { 
					keypad_value = 0x02;
				} else if (keypad_temp == 'B') {
					keypad_value = 0x03; 
				} else if (keypad_temp == '#') {
     a1e:	8b 81       	ldd	r24, Y+3	; 0x03
     a20:	83 32       	cpi	r24, 0x23	; 35
     a22:	21 f4       	brne	.+8      	; 0xa2c <SMTick1+0xe6>
					keypad_value = 0x04;
     a24:	84 e0       	ldi	r24, 0x04	; 4
     a26:	80 93 3a 01 	sts	0x013A, r24
					keypad_value = 0x0A;
				}
			} else {
				keypad_value = 0x0B;
			}
			break;
     a2a:	2c c0       	rjmp	.+88     	; 0xa84 <SMTick1+0x13e>
					keypad_value = 0x02;
				} else if (keypad_temp == 'B') {
					keypad_value = 0x03; 
				} else if (keypad_temp == '#') {
					keypad_value = 0x04;
				} else if (keypad_temp == '9') { 
     a2c:	8b 81       	ldd	r24, Y+3	; 0x03
     a2e:	89 33       	cpi	r24, 0x39	; 57
     a30:	21 f4       	brne	.+8      	; 0xa3a <SMTick1+0xf4>
					keypad_value = 0x05;
     a32:	85 e0       	ldi	r24, 0x05	; 5
     a34:	80 93 3a 01 	sts	0x013A, r24
					keypad_value = 0x0A;
				}
			} else {
				keypad_value = 0x0B;
			}
			break;
     a38:	25 c0       	rjmp	.+74     	; 0xa84 <SMTick1+0x13e>
					keypad_value = 0x03; 
				} else if (keypad_temp == '#') {
					keypad_value = 0x04;
				} else if (keypad_temp == '9') { 
					keypad_value = 0x05;
				} else if (keypad_temp == '6') {
     a3a:	8b 81       	ldd	r24, Y+3	; 0x03
     a3c:	86 33       	cpi	r24, 0x36	; 54
     a3e:	21 f4       	brne	.+8      	; 0xa48 <SMTick1+0x102>
					keypad_value = 0x06; 
     a40:	86 e0       	ldi	r24, 0x06	; 6
     a42:	80 93 3a 01 	sts	0x013A, r24
					keypad_value = 0x0A;
				}
			} else {
				keypad_value = 0x0B;
			}
			break;
     a46:	1e c0       	rjmp	.+60     	; 0xa84 <SMTick1+0x13e>
					keypad_value = 0x04;
				} else if (keypad_temp == '9') { 
					keypad_value = 0x05;
				} else if (keypad_temp == '6') {
					keypad_value = 0x06; 
				} else if (keypad_temp == '0') {
     a48:	8b 81       	ldd	r24, Y+3	; 0x03
     a4a:	80 33       	cpi	r24, 0x30	; 48
     a4c:	21 f4       	brne	.+8      	; 0xa56 <SMTick1+0x110>
					keypad_value = 0x07;
     a4e:	87 e0       	ldi	r24, 0x07	; 7
     a50:	80 93 3a 01 	sts	0x013A, r24
					keypad_value = 0x0A;
				}
			} else {
				keypad_value = 0x0B;
			}
			break;
     a54:	17 c0       	rjmp	.+46     	; 0xa84 <SMTick1+0x13e>
					keypad_value = 0x05;
				} else if (keypad_temp == '6') {
					keypad_value = 0x06; 
				} else if (keypad_temp == '0') {
					keypad_value = 0x07;
				} else if (keypad_temp == '8') { 
     a56:	8b 81       	ldd	r24, Y+3	; 0x03
     a58:	88 33       	cpi	r24, 0x38	; 56
     a5a:	21 f4       	brne	.+8      	; 0xa64 <SMTick1+0x11e>
					keypad_value = 0x08;
     a5c:	88 e0       	ldi	r24, 0x08	; 8
     a5e:	80 93 3a 01 	sts	0x013A, r24
					keypad_value = 0x0A;
				}
			} else {
				keypad_value = 0x0B;
			}
			break;
     a62:	10 c0       	rjmp	.+32     	; 0xa84 <SMTick1+0x13e>
					keypad_value = 0x06; 
				} else if (keypad_temp == '0') {
					keypad_value = 0x07;
				} else if (keypad_temp == '8') { 
					keypad_value = 0x08;
				} else if (keypad_temp == '5') {
     a64:	8b 81       	ldd	r24, Y+3	; 0x03
     a66:	85 33       	cpi	r24, 0x35	; 53
     a68:	21 f4       	brne	.+8      	; 0xa72 <SMTick1+0x12c>
					keypad_value = 0x09;
     a6a:	89 e0       	ldi	r24, 0x09	; 9
     a6c:	80 93 3a 01 	sts	0x013A, r24
					keypad_value = 0x0A;
				}
			} else {
				keypad_value = 0x0B;
			}
			break;
     a70:	09 c0       	rjmp	.+18     	; 0xa84 <SMTick1+0x13e>
				} else if (keypad_temp == '8') { 
					keypad_value = 0x08;
				} else if (keypad_temp == '5') {
					keypad_value = 0x09;
				} else {
					keypad_value = 0x0A;
     a72:	8a e0       	ldi	r24, 0x0A	; 10
     a74:	80 93 3a 01 	sts	0x013A, r24
				}
			} else {
				keypad_value = 0x0B;
			}
			break;
     a78:	05 c0       	rjmp	.+10     	; 0xa84 <SMTick1+0x13e>
					keypad_value = 0x09;
				} else {
					keypad_value = 0x0A;
				}
			} else {
				keypad_value = 0x0B;
     a7a:	8b e0       	ldi	r24, 0x0B	; 11
     a7c:	80 93 3a 01 	sts	0x013A, r24
			}
			break;
     a80:	01 c0       	rjmp	.+2      	; 0xa84 <SMTick1+0x13e>
		default: break;
     a82:	00 00       	nop
	}
	return state;
     a84:	8c 81       	ldd	r24, Y+4	; 0x04
     a86:	9d 81       	ldd	r25, Y+5	; 0x05
}
     a88:	0f 90       	pop	r0
     a8a:	0f 90       	pop	r0
     a8c:	0f 90       	pop	r0
     a8e:	0f 90       	pop	r0
     a90:	0f 90       	pop	r0
     a92:	cf 91       	pop	r28
     a94:	df 91       	pop	r29
     a96:	08 95       	ret

00000a98 <SMTick2>:

// game logic
enum SM2_States { SM2_start };
int SMTick2(int state) {
     a98:	df 93       	push	r29
     a9a:	cf 93       	push	r28
     a9c:	00 d0       	rcall	.+0      	; 0xa9e <SMTick2+0x6>
     a9e:	cd b7       	in	r28, 0x3d	; 61
     aa0:	de b7       	in	r29, 0x3e	; 62
     aa2:	9a 83       	std	Y+2, r25	; 0x02
     aa4:	89 83       	std	Y+1, r24	; 0x01
	//State machine transitions
	switch (state) {
     aa6:	89 81       	ldd	r24, Y+1	; 0x01
     aa8:	9a 81       	ldd	r25, Y+2	; 0x02
     aaa:	00 97       	sbiw	r24, 0x00	; 0
     aac:	19 f4       	brne	.+6      	; 0xab4 <SMTick2+0x1c>
		case SM2_start:
			state = SM2_start;
     aae:	1a 82       	std	Y+2, r1	; 0x02
     ab0:	19 82       	std	Y+1, r1	; 0x01
			break;
     ab2:	03 c0       	rjmp	.+6      	; 0xaba <SMTick2+0x22>
		default:
			state = SM2_start;
     ab4:	1a 82       	std	Y+2, r1	; 0x02
     ab6:	19 82       	std	Y+1, r1	; 0x01
			break;
     ab8:	00 00       	nop
	}
	//State machine actions
	switch(state) {
		case SM2_start: 				

			break;
     aba:	00 00       	nop
		default: break;
	}
	return state;
     abc:	89 81       	ldd	r24, Y+1	; 0x01
     abe:	9a 81       	ldd	r25, Y+2	; 0x02
}
     ac0:	0f 90       	pop	r0
     ac2:	0f 90       	pop	r0
     ac4:	cf 91       	pop	r28
     ac6:	df 91       	pop	r29
     ac8:	08 95       	ret

00000aca <SMTick3>:

// lights to display and send message to secondary AVR
enum SM3_States { SM3_start };
int SMTick3(int state) {
     aca:	df 93       	push	r29
     acc:	cf 93       	push	r28
     ace:	00 d0       	rcall	.+0      	; 0xad0 <SMTick3+0x6>
     ad0:	cd b7       	in	r28, 0x3d	; 61
     ad2:	de b7       	in	r29, 0x3e	; 62
     ad4:	9a 83       	std	Y+2, r25	; 0x02
     ad6:	89 83       	std	Y+1, r24	; 0x01
	//State machine transitions
	switch (state) {
     ad8:	89 81       	ldd	r24, Y+1	; 0x01
     ada:	9a 81       	ldd	r25, Y+2	; 0x02
     adc:	00 97       	sbiw	r24, 0x00	; 0
     ade:	19 f4       	brne	.+6      	; 0xae6 <SMTick3+0x1c>
		case SM3_start:
			state = SM3_start;
     ae0:	1a 82       	std	Y+2, r1	; 0x02
     ae2:	19 82       	std	Y+1, r1	; 0x01
			break;
     ae4:	03 c0       	rjmp	.+6      	; 0xaec <SMTick3+0x22>
		default:
			state = SM3_start;
     ae6:	1a 82       	std	Y+2, r1	; 0x02
     ae8:	19 82       	std	Y+1, r1	; 0x01
			break;
     aea:	00 00       	nop
	}
	//State machine actions
	switch(state) {
     aec:	89 81       	ldd	r24, Y+1	; 0x01
     aee:	9a 81       	ldd	r25, Y+2	; 0x02
     af0:	00 97       	sbiw	r24, 0x00	; 0
     af2:	09 f0       	breq	.+2      	; 0xaf6 <SMTick3+0x2c>
     af4:	e9 c0       	rjmp	.+466    	; 0xcc8 <SMTick3+0x1fe>
		case SM3_start: 	
			LED_spin_knob = 0x00;
     af6:	10 92 37 01 	sts	0x0137, r1
			LED_buttons = 0x00;			
     afa:	10 92 38 01 	sts	0x0138, r1
			if (button1) {
     afe:	80 91 31 01 	lds	r24, 0x0131
     b02:	88 23       	and	r24, r24
     b04:	49 f0       	breq	.+18     	; 0xb18 <SMTick3+0x4e>
				LED_buttons = 0x08; //all blue
     b06:	88 e0       	ldi	r24, 0x08	; 8
     b08:	80 93 38 01 	sts	0x0138, r24
				sendMessage(DEVICE_SEVENSEG, 0x01);
     b0c:	80 91 25 01 	lds	r24, 0x0125
     b10:	61 e0       	ldi	r22, 0x01	; 1
     b12:	0e 94 8c 04 	call	0x918	; 0x918 <sendMessage>
     b16:	bd c0       	rjmp	.+378    	; 0xc92 <SMTick3+0x1c8>
			} else if (button2) {
     b18:	80 91 32 01 	lds	r24, 0x0132
     b1c:	88 23       	and	r24, r24
     b1e:	49 f0       	breq	.+18     	; 0xb32 <SMTick3+0x68>
				LED_buttons = 0x02; //all green
     b20:	82 e0       	ldi	r24, 0x02	; 2
     b22:	80 93 38 01 	sts	0x0138, r24
				sendMessage(DEVICE_SEVENSEG, 0x02);
     b26:	80 91 25 01 	lds	r24, 0x0125
     b2a:	62 e0       	ldi	r22, 0x02	; 2
     b2c:	0e 94 8c 04 	call	0x918	; 0x918 <sendMessage>
     b30:	b0 c0       	rjmp	.+352    	; 0xc92 <SMTick3+0x1c8>
			} else if (button3) {
     b32:	80 91 33 01 	lds	r24, 0x0133
     b36:	88 23       	and	r24, r24
     b38:	49 f0       	breq	.+18     	; 0xb4c <SMTick3+0x82>
				LED_buttons = 0x09; //purple (red + blue)
     b3a:	89 e0       	ldi	r24, 0x09	; 9
     b3c:	80 93 38 01 	sts	0x0138, r24
				sendMessage(DEVICE_SEVENSEG, 0x03);
     b40:	80 91 25 01 	lds	r24, 0x0125
     b44:	63 e0       	ldi	r22, 0x03	; 3
     b46:	0e 94 8c 04 	call	0x918	; 0x918 <sendMessage>
     b4a:	a3 c0       	rjmp	.+326    	; 0xc92 <SMTick3+0x1c8>
			} else if (button4) {
     b4c:	80 91 34 01 	lds	r24, 0x0134
     b50:	88 23       	and	r24, r24
     b52:	49 f0       	breq	.+18     	; 0xb66 <SMTick3+0x9c>
				LED_buttons = 0x0B; //silver? (red + blue + green)
     b54:	8b e0       	ldi	r24, 0x0B	; 11
     b56:	80 93 38 01 	sts	0x0138, r24
				sendMessage(DEVICE_SEVENSEG, 0x04);
     b5a:	80 91 25 01 	lds	r24, 0x0125
     b5e:	64 e0       	ldi	r22, 0x04	; 4
     b60:	0e 94 8c 04 	call	0x918	; 0x918 <sendMessage>
     b64:	96 c0       	rjmp	.+300    	; 0xc92 <SMTick3+0x1c8>
			} else if (button5) {
     b66:	80 91 35 01 	lds	r24, 0x0135
     b6a:	88 23       	and	r24, r24
     b6c:	49 f0       	breq	.+18     	; 0xb80 <SMTick3+0xb6>
				LED_buttons = 0x01; //all red
     b6e:	81 e0       	ldi	r24, 0x01	; 1
     b70:	80 93 38 01 	sts	0x0138, r24
				sendMessage(DEVICE_SEVENSEG, 0x05);
     b74:	80 91 25 01 	lds	r24, 0x0125
     b78:	65 e0       	ldi	r22, 0x05	; 5
     b7a:	0e 94 8c 04 	call	0x918	; 0x918 <sendMessage>
     b7e:	89 c0       	rjmp	.+274    	; 0xc92 <SMTick3+0x1c8>
			} else if (spin_knob) {
     b80:	80 91 36 01 	lds	r24, 0x0136
     b84:	88 23       	and	r24, r24
     b86:	49 f0       	breq	.+18     	; 0xb9a <SMTick3+0xd0>
				LED_spin_knob = 0x01;
     b88:	81 e0       	ldi	r24, 0x01	; 1
     b8a:	80 93 37 01 	sts	0x0137, r24
				sendMessage(DEVICE_SEVENSEG, 0x06);
     b8e:	80 91 25 01 	lds	r24, 0x0125
     b92:	66 e0       	ldi	r22, 0x06	; 6
     b94:	0e 94 8c 04 	call	0x918	; 0x918 <sendMessage>
     b98:	7c c0       	rjmp	.+248    	; 0xc92 <SMTick3+0x1c8>
			} else if (light_sensor) {
     b9a:	80 91 39 01 	lds	r24, 0x0139
     b9e:	88 23       	and	r24, r24
     ba0:	31 f0       	breq	.+12     	; 0xbae <SMTick3+0xe4>
				sendMessage(DEVICE_SEVENSEG, 0x07);
     ba2:	80 91 25 01 	lds	r24, 0x0125
     ba6:	67 e0       	ldi	r22, 0x07	; 7
     ba8:	0e 94 8c 04 	call	0x918	; 0x918 <sendMessage>
     bac:	72 c0       	rjmp	.+228    	; 0xc92 <SMTick3+0x1c8>
			} else if (keypad_value != 0x0B) {
     bae:	80 91 3a 01 	lds	r24, 0x013A
     bb2:	8b 30       	cpi	r24, 0x0B	; 11
     bb4:	09 f4       	brne	.+2      	; 0xbb8 <SMTick3+0xee>
     bb6:	6d c0       	rjmp	.+218    	; 0xc92 <SMTick3+0x1c8>
				if (keypad_value == 0x0A) { //error key (something other than 0-9)
     bb8:	80 91 3a 01 	lds	r24, 0x013A
     bbc:	8a 30       	cpi	r24, 0x0A	; 10
     bbe:	31 f4       	brne	.+12     	; 0xbcc <SMTick3+0x102>
					sendMessage(DEVICE_SEVENSEG, 0x0A);
     bc0:	80 91 25 01 	lds	r24, 0x0125
     bc4:	6a e0       	ldi	r22, 0x0A	; 10
     bc6:	0e 94 8c 04 	call	0x918	; 0x918 <sendMessage>
     bca:	63 c0       	rjmp	.+198    	; 0xc92 <SMTick3+0x1c8>
				} else {
					if (keypad_value == 0x00) {
     bcc:	80 91 3a 01 	lds	r24, 0x013A
     bd0:	88 23       	and	r24, r24
     bd2:	31 f4       	brne	.+12     	; 0xbe0 <SMTick3+0x116>
						sendMessage(DEVICE_SEVENSEG, 0x00);
     bd4:	80 91 25 01 	lds	r24, 0x0125
     bd8:	60 e0       	ldi	r22, 0x00	; 0
     bda:	0e 94 8c 04 	call	0x918	; 0x918 <sendMessage>
     bde:	59 c0       	rjmp	.+178    	; 0xc92 <SMTick3+0x1c8>
					} else if (keypad_value == 0x01) {
     be0:	80 91 3a 01 	lds	r24, 0x013A
     be4:	81 30       	cpi	r24, 0x01	; 1
     be6:	31 f4       	brne	.+12     	; 0xbf4 <SMTick3+0x12a>
						sendMessage(DEVICE_SEVENSEG, 0x01);
     be8:	80 91 25 01 	lds	r24, 0x0125
     bec:	61 e0       	ldi	r22, 0x01	; 1
     bee:	0e 94 8c 04 	call	0x918	; 0x918 <sendMessage>
     bf2:	4f c0       	rjmp	.+158    	; 0xc92 <SMTick3+0x1c8>
					} else if (keypad_value == 0x02) {
     bf4:	80 91 3a 01 	lds	r24, 0x013A
     bf8:	82 30       	cpi	r24, 0x02	; 2
     bfa:	31 f4       	brne	.+12     	; 0xc08 <SMTick3+0x13e>
						sendMessage(DEVICE_SEVENSEG, 0x02);
     bfc:	80 91 25 01 	lds	r24, 0x0125
     c00:	62 e0       	ldi	r22, 0x02	; 2
     c02:	0e 94 8c 04 	call	0x918	; 0x918 <sendMessage>
     c06:	45 c0       	rjmp	.+138    	; 0xc92 <SMTick3+0x1c8>
					} else if (keypad_value == 0x03) {
     c08:	80 91 3a 01 	lds	r24, 0x013A
     c0c:	83 30       	cpi	r24, 0x03	; 3
     c0e:	31 f4       	brne	.+12     	; 0xc1c <SMTick3+0x152>
						sendMessage(DEVICE_SEVENSEG, 0x03);
     c10:	80 91 25 01 	lds	r24, 0x0125
     c14:	63 e0       	ldi	r22, 0x03	; 3
     c16:	0e 94 8c 04 	call	0x918	; 0x918 <sendMessage>
     c1a:	3b c0       	rjmp	.+118    	; 0xc92 <SMTick3+0x1c8>
					} else if (keypad_value == 0x04) {
     c1c:	80 91 3a 01 	lds	r24, 0x013A
     c20:	84 30       	cpi	r24, 0x04	; 4
     c22:	31 f4       	brne	.+12     	; 0xc30 <SMTick3+0x166>
						sendMessage(DEVICE_SEVENSEG, 0x04);
     c24:	80 91 25 01 	lds	r24, 0x0125
     c28:	64 e0       	ldi	r22, 0x04	; 4
     c2a:	0e 94 8c 04 	call	0x918	; 0x918 <sendMessage>
     c2e:	31 c0       	rjmp	.+98     	; 0xc92 <SMTick3+0x1c8>
					} else if (keypad_value == 0x05) {
     c30:	80 91 3a 01 	lds	r24, 0x013A
     c34:	85 30       	cpi	r24, 0x05	; 5
     c36:	31 f4       	brne	.+12     	; 0xc44 <SMTick3+0x17a>
						sendMessage(DEVICE_SEVENSEG, 0x05);
     c38:	80 91 25 01 	lds	r24, 0x0125
     c3c:	65 e0       	ldi	r22, 0x05	; 5
     c3e:	0e 94 8c 04 	call	0x918	; 0x918 <sendMessage>
     c42:	27 c0       	rjmp	.+78     	; 0xc92 <SMTick3+0x1c8>
					} else if (keypad_value == 0x06) {
     c44:	80 91 3a 01 	lds	r24, 0x013A
     c48:	86 30       	cpi	r24, 0x06	; 6
     c4a:	31 f4       	brne	.+12     	; 0xc58 <SMTick3+0x18e>
						sendMessage(DEVICE_SEVENSEG, 0x06);
     c4c:	80 91 25 01 	lds	r24, 0x0125
     c50:	66 e0       	ldi	r22, 0x06	; 6
     c52:	0e 94 8c 04 	call	0x918	; 0x918 <sendMessage>
     c56:	1d c0       	rjmp	.+58     	; 0xc92 <SMTick3+0x1c8>
					} else if (keypad_value == 0x07) {
     c58:	80 91 3a 01 	lds	r24, 0x013A
     c5c:	87 30       	cpi	r24, 0x07	; 7
     c5e:	31 f4       	brne	.+12     	; 0xc6c <SMTick3+0x1a2>
						sendMessage(DEVICE_SEVENSEG, 0x07);
     c60:	80 91 25 01 	lds	r24, 0x0125
     c64:	67 e0       	ldi	r22, 0x07	; 7
     c66:	0e 94 8c 04 	call	0x918	; 0x918 <sendMessage>
     c6a:	13 c0       	rjmp	.+38     	; 0xc92 <SMTick3+0x1c8>
					} else if (keypad_value == 0x08) {
     c6c:	80 91 3a 01 	lds	r24, 0x013A
     c70:	88 30       	cpi	r24, 0x08	; 8
     c72:	31 f4       	brne	.+12     	; 0xc80 <SMTick3+0x1b6>
						sendMessage(DEVICE_SEVENSEG, 0x08);
     c74:	80 91 25 01 	lds	r24, 0x0125
     c78:	68 e0       	ldi	r22, 0x08	; 8
     c7a:	0e 94 8c 04 	call	0x918	; 0x918 <sendMessage>
     c7e:	09 c0       	rjmp	.+18     	; 0xc92 <SMTick3+0x1c8>
					} else if (keypad_value == 0x09) {
     c80:	80 91 3a 01 	lds	r24, 0x013A
     c84:	89 30       	cpi	r24, 0x09	; 9
     c86:	29 f4       	brne	.+10     	; 0xc92 <SMTick3+0x1c8>
						sendMessage(DEVICE_SEVENSEG, 0x09);
     c88:	80 91 25 01 	lds	r24, 0x0125
     c8c:	69 e0       	ldi	r22, 0x09	; 9
     c8e:	0e 94 8c 04 	call	0x918	; 0x918 <sendMessage>
					} 				
				}
			} 
			PORTD = (LED_spin_knob << 3) | (LED_buttons << 4);
     c92:	8b e2       	ldi	r24, 0x2B	; 43
     c94:	90 e0       	ldi	r25, 0x00	; 0
     c96:	20 91 37 01 	lds	r18, 0x0137
     c9a:	22 2f       	mov	r18, r18
     c9c:	30 e0       	ldi	r19, 0x00	; 0
     c9e:	22 0f       	add	r18, r18
     ca0:	33 1f       	adc	r19, r19
     ca2:	22 0f       	add	r18, r18
     ca4:	33 1f       	adc	r19, r19
     ca6:	22 0f       	add	r18, r18
     ca8:	33 1f       	adc	r19, r19
     caa:	42 2f       	mov	r20, r18
     cac:	20 91 38 01 	lds	r18, 0x0138
     cb0:	22 2f       	mov	r18, r18
     cb2:	30 e0       	ldi	r19, 0x00	; 0
     cb4:	22 95       	swap	r18
     cb6:	32 95       	swap	r19
     cb8:	30 7f       	andi	r19, 0xF0	; 240
     cba:	32 27       	eor	r19, r18
     cbc:	20 7f       	andi	r18, 0xF0	; 240
     cbe:	32 27       	eor	r19, r18
     cc0:	24 2b       	or	r18, r20
     cc2:	fc 01       	movw	r30, r24
     cc4:	20 83       	st	Z, r18
			break;
     cc6:	01 c0       	rjmp	.+2      	; 0xcca <SMTick3+0x200>
		default: break;
     cc8:	00 00       	nop
	}
	return state;
     cca:	89 81       	ldd	r24, Y+1	; 0x01
     ccc:	9a 81       	ldd	r25, Y+2	; 0x02
}
     cce:	0f 90       	pop	r0
     cd0:	0f 90       	pop	r0
     cd2:	cf 91       	pop	r28
     cd4:	df 91       	pop	r29
     cd6:	08 95       	ret

00000cd8 <main>:

// Implement scheduler code from PES.
int main() {
     cd8:	0f 93       	push	r16
     cda:	1f 93       	push	r17
     cdc:	df 93       	push	r29
     cde:	cf 93       	push	r28
     ce0:	cd b7       	in	r28, 0x3d	; 61
     ce2:	de b7       	in	r29, 0x3e	; 62
     ce4:	aa 97       	sbiw	r28, 0x2a	; 42
     ce6:	0f b6       	in	r0, 0x3f	; 63
     ce8:	f8 94       	cli
     cea:	de bf       	out	0x3e, r29	; 62
     cec:	0f be       	out	0x3f, r0	; 63
     cee:	cd bf       	out	0x3d, r28	; 61
	DDRA = 0xFF; PORTA = 0x00;
     cf0:	81 e2       	ldi	r24, 0x21	; 33
     cf2:	90 e0       	ldi	r25, 0x00	; 0
     cf4:	2f ef       	ldi	r18, 0xFF	; 255
     cf6:	fc 01       	movw	r30, r24
     cf8:	20 83       	st	Z, r18
     cfa:	82 e2       	ldi	r24, 0x22	; 34
     cfc:	90 e0       	ldi	r25, 0x00	; 0
     cfe:	fc 01       	movw	r30, r24
     d00:	10 82       	st	Z, r1
	DDRB = 0x00; PORTB = 0xFF;
     d02:	84 e2       	ldi	r24, 0x24	; 36
     d04:	90 e0       	ldi	r25, 0x00	; 0
     d06:	fc 01       	movw	r30, r24
     d08:	10 82       	st	Z, r1
     d0a:	85 e2       	ldi	r24, 0x25	; 37
     d0c:	90 e0       	ldi	r25, 0x00	; 0
     d0e:	2f ef       	ldi	r18, 0xFF	; 255
     d10:	fc 01       	movw	r30, r24
     d12:	20 83       	st	Z, r18
	DDRC = 0xF0; PORTC = 0x0F;
     d14:	87 e2       	ldi	r24, 0x27	; 39
     d16:	90 e0       	ldi	r25, 0x00	; 0
     d18:	20 ef       	ldi	r18, 0xF0	; 240
     d1a:	fc 01       	movw	r30, r24
     d1c:	20 83       	st	Z, r18
     d1e:	88 e2       	ldi	r24, 0x28	; 40
     d20:	90 e0       	ldi	r25, 0x00	; 0
     d22:	2f e0       	ldi	r18, 0x0F	; 15
     d24:	fc 01       	movw	r30, r24
     d26:	20 83       	st	Z, r18
	DDRD = 0xFF; PORTD = 0x00; 
     d28:	8a e2       	ldi	r24, 0x2A	; 42
     d2a:	90 e0       	ldi	r25, 0x00	; 0
     d2c:	2f ef       	ldi	r18, 0xFF	; 255
     d2e:	fc 01       	movw	r30, r24
     d30:	20 83       	st	Z, r18
     d32:	8b e2       	ldi	r24, 0x2B	; 43
     d34:	90 e0       	ldi	r25, 0x00	; 0
     d36:	fc 01       	movw	r30, r24
     d38:	10 82       	st	Z, r1
	
	// Period for the tasks
	unsigned long int SMTick1_calc = 1;
     d3a:	81 e0       	ldi	r24, 0x01	; 1
     d3c:	90 e0       	ldi	r25, 0x00	; 0
     d3e:	a0 e0       	ldi	r26, 0x00	; 0
     d40:	b0 e0       	ldi	r27, 0x00	; 0
     d42:	8b 83       	std	Y+3, r24	; 0x03
     d44:	9c 83       	std	Y+4, r25	; 0x04
     d46:	ad 83       	std	Y+5, r26	; 0x05
     d48:	be 83       	std	Y+6, r27	; 0x06
	unsigned long int SMTick2_calc = 5;
     d4a:	85 e0       	ldi	r24, 0x05	; 5
     d4c:	90 e0       	ldi	r25, 0x00	; 0
     d4e:	a0 e0       	ldi	r26, 0x00	; 0
     d50:	b0 e0       	ldi	r27, 0x00	; 0
     d52:	8f 83       	std	Y+7, r24	; 0x07
     d54:	98 87       	std	Y+8, r25	; 0x08
     d56:	a9 87       	std	Y+9, r26	; 0x09
     d58:	ba 87       	std	Y+10, r27	; 0x0a
	unsigned long int SMTick3_calc = 10;
     d5a:	8a e0       	ldi	r24, 0x0A	; 10
     d5c:	90 e0       	ldi	r25, 0x00	; 0
     d5e:	a0 e0       	ldi	r26, 0x00	; 0
     d60:	b0 e0       	ldi	r27, 0x00	; 0
     d62:	8b 87       	std	Y+11, r24	; 0x0b
     d64:	9c 87       	std	Y+12, r25	; 0x0c
     d66:	ad 87       	std	Y+13, r26	; 0x0d
     d68:	be 87       	std	Y+14, r27	; 0x0e
	
	//Calculating GCD
	unsigned long int tmpGCD = 1;
     d6a:	81 e0       	ldi	r24, 0x01	; 1
     d6c:	90 e0       	ldi	r25, 0x00	; 0
     d6e:	a0 e0       	ldi	r26, 0x00	; 0
     d70:	b0 e0       	ldi	r27, 0x00	; 0
     d72:	8f 87       	std	Y+15, r24	; 0x0f
     d74:	98 8b       	std	Y+16, r25	; 0x10
     d76:	a9 8b       	std	Y+17, r26	; 0x11
     d78:	ba 8b       	std	Y+18, r27	; 0x12
	tmpGCD = findGCD(SMTick1_calc, SMTick2_calc);
     d7a:	8b 81       	ldd	r24, Y+3	; 0x03
     d7c:	9c 81       	ldd	r25, Y+4	; 0x04
     d7e:	ad 81       	ldd	r26, Y+5	; 0x05
     d80:	be 81       	ldd	r27, Y+6	; 0x06
     d82:	2f 81       	ldd	r18, Y+7	; 0x07
     d84:	38 85       	ldd	r19, Y+8	; 0x08
     d86:	49 85       	ldd	r20, Y+9	; 0x09
     d88:	5a 85       	ldd	r21, Y+10	; 0x0a
     d8a:	bc 01       	movw	r22, r24
     d8c:	cd 01       	movw	r24, r26
     d8e:	0e 94 89 02 	call	0x512	; 0x512 <findGCD>
     d92:	dc 01       	movw	r26, r24
     d94:	cb 01       	movw	r24, r22
     d96:	8f 87       	std	Y+15, r24	; 0x0f
     d98:	98 8b       	std	Y+16, r25	; 0x10
     d9a:	a9 8b       	std	Y+17, r26	; 0x11
     d9c:	ba 8b       	std	Y+18, r27	; 0x12
	tmpGCD = findGCD(tmpGCD, SMTick3_calc);
     d9e:	8f 85       	ldd	r24, Y+15	; 0x0f
     da0:	98 89       	ldd	r25, Y+16	; 0x10
     da2:	a9 89       	ldd	r26, Y+17	; 0x11
     da4:	ba 89       	ldd	r27, Y+18	; 0x12
     da6:	2b 85       	ldd	r18, Y+11	; 0x0b
     da8:	3c 85       	ldd	r19, Y+12	; 0x0c
     daa:	4d 85       	ldd	r20, Y+13	; 0x0d
     dac:	5e 85       	ldd	r21, Y+14	; 0x0e
     dae:	bc 01       	movw	r22, r24
     db0:	cd 01       	movw	r24, r26
     db2:	0e 94 89 02 	call	0x512	; 0x512 <findGCD>
     db6:	dc 01       	movw	r26, r24
     db8:	cb 01       	movw	r24, r22
     dba:	8f 87       	std	Y+15, r24	; 0x0f
     dbc:	98 8b       	std	Y+16, r25	; 0x10
     dbe:	a9 8b       	std	Y+17, r26	; 0x11
     dc0:	ba 8b       	std	Y+18, r27	; 0x12
	
	//Greatest common divisor for all tasks
	// or smallest time unit for tasks.
	unsigned long int GCD = tmpGCD;
     dc2:	8f 85       	ldd	r24, Y+15	; 0x0f
     dc4:	98 89       	ldd	r25, Y+16	; 0x10
     dc6:	a9 89       	ldd	r26, Y+17	; 0x11
     dc8:	ba 89       	ldd	r27, Y+18	; 0x12
     dca:	8b 8b       	std	Y+19, r24	; 0x13
     dcc:	9c 8b       	std	Y+20, r25	; 0x14
     dce:	ad 8b       	std	Y+21, r26	; 0x15
     dd0:	be 8b       	std	Y+22, r27	; 0x16
	
	//Recalculate GCD periods for scheduler
	unsigned long int SMTick1_period = SMTick1_calc/GCD;
     dd2:	8b 81       	ldd	r24, Y+3	; 0x03
     dd4:	9c 81       	ldd	r25, Y+4	; 0x04
     dd6:	ad 81       	ldd	r26, Y+5	; 0x05
     dd8:	be 81       	ldd	r27, Y+6	; 0x06
     dda:	2b 89       	ldd	r18, Y+19	; 0x13
     ddc:	3c 89       	ldd	r19, Y+20	; 0x14
     dde:	4d 89       	ldd	r20, Y+21	; 0x15
     de0:	5e 89       	ldd	r21, Y+22	; 0x16
     de2:	bc 01       	movw	r22, r24
     de4:	cd 01       	movw	r24, r26
     de6:	0e 94 bc 0a 	call	0x1578	; 0x1578 <__udivmodsi4>
     dea:	2f 8b       	std	Y+23, r18	; 0x17
     dec:	38 8f       	std	Y+24, r19	; 0x18
     dee:	49 8f       	std	Y+25, r20	; 0x19
     df0:	5a 8f       	std	Y+26, r21	; 0x1a
	unsigned long int SMTick2_period = SMTick2_calc/GCD;
     df2:	8f 81       	ldd	r24, Y+7	; 0x07
     df4:	98 85       	ldd	r25, Y+8	; 0x08
     df6:	a9 85       	ldd	r26, Y+9	; 0x09
     df8:	ba 85       	ldd	r27, Y+10	; 0x0a
     dfa:	2b 89       	ldd	r18, Y+19	; 0x13
     dfc:	3c 89       	ldd	r19, Y+20	; 0x14
     dfe:	4d 89       	ldd	r20, Y+21	; 0x15
     e00:	5e 89       	ldd	r21, Y+22	; 0x16
     e02:	bc 01       	movw	r22, r24
     e04:	cd 01       	movw	r24, r26
     e06:	0e 94 bc 0a 	call	0x1578	; 0x1578 <__udivmodsi4>
     e0a:	2b 8f       	std	Y+27, r18	; 0x1b
     e0c:	3c 8f       	std	Y+28, r19	; 0x1c
     e0e:	4d 8f       	std	Y+29, r20	; 0x1d
     e10:	5e 8f       	std	Y+30, r21	; 0x1e
	unsigned long int SMTick3_period = SMTick3_calc/GCD;
     e12:	8b 85       	ldd	r24, Y+11	; 0x0b
     e14:	9c 85       	ldd	r25, Y+12	; 0x0c
     e16:	ad 85       	ldd	r26, Y+13	; 0x0d
     e18:	be 85       	ldd	r27, Y+14	; 0x0e
     e1a:	2b 89       	ldd	r18, Y+19	; 0x13
     e1c:	3c 89       	ldd	r19, Y+20	; 0x14
     e1e:	4d 89       	ldd	r20, Y+21	; 0x15
     e20:	5e 89       	ldd	r21, Y+22	; 0x16
     e22:	bc 01       	movw	r22, r24
     e24:	cd 01       	movw	r24, r26
     e26:	0e 94 bc 0a 	call	0x1578	; 0x1578 <__udivmodsi4>
     e2a:	2f 8f       	std	Y+31, r18	; 0x1f
     e2c:	38 a3       	std	Y+32, r19	; 0x20
     e2e:	49 a3       	std	Y+33, r20	; 0x21
     e30:	5a a3       	std	Y+34, r21	; 0x22

	//Declare an array of tasks
	static task task1, task2, task3;
	task *tasks[] = { &task1, &task2, &task3 };
     e32:	ce 01       	movw	r24, r28
     e34:	85 96       	adiw	r24, 0x25	; 37
     e36:	26 e2       	ldi	r18, 0x26	; 38
     e38:	31 e0       	ldi	r19, 0x01	; 1
     e3a:	46 e0       	ldi	r20, 0x06	; 6
     e3c:	f9 01       	movw	r30, r18
     e3e:	00 80       	ld	r0, Z
     e40:	2f 5f       	subi	r18, 0xFF	; 255
     e42:	3f 4f       	sbci	r19, 0xFF	; 255
     e44:	fc 01       	movw	r30, r24
     e46:	00 82       	st	Z, r0
     e48:	01 96       	adiw	r24, 0x01	; 1
     e4a:	41 50       	subi	r20, 0x01	; 1
     e4c:	44 23       	and	r20, r20
     e4e:	b1 f7       	brne	.-20     	; 0xe3c <main+0x164>
	const unsigned short numTasks = sizeof(tasks)/sizeof(task*);
     e50:	83 e0       	ldi	r24, 0x03	; 3
     e52:	90 e0       	ldi	r25, 0x00	; 0
     e54:	9c a3       	std	Y+36, r25	; 0x24
     e56:	8b a3       	std	Y+35, r24	; 0x23
	// Task 1
	task1.state = -1;
     e58:	8f ef       	ldi	r24, 0xFF	; 255
     e5a:	80 93 3b 01 	sts	0x013B, r24
	task1.period = SMTick1_period;
     e5e:	8f 89       	ldd	r24, Y+23	; 0x17
     e60:	98 8d       	ldd	r25, Y+24	; 0x18
     e62:	a9 8d       	ldd	r26, Y+25	; 0x19
     e64:	ba 8d       	ldd	r27, Y+26	; 0x1a
     e66:	80 93 3c 01 	sts	0x013C, r24
     e6a:	90 93 3d 01 	sts	0x013D, r25
     e6e:	a0 93 3e 01 	sts	0x013E, r26
     e72:	b0 93 3f 01 	sts	0x013F, r27
	task1.elapsedTime = SMTick1_period;
     e76:	8f 89       	ldd	r24, Y+23	; 0x17
     e78:	98 8d       	ldd	r25, Y+24	; 0x18
     e7a:	a9 8d       	ldd	r26, Y+25	; 0x19
     e7c:	ba 8d       	ldd	r27, Y+26	; 0x1a
     e7e:	80 93 40 01 	sts	0x0140, r24
     e82:	90 93 41 01 	sts	0x0141, r25
     e86:	a0 93 42 01 	sts	0x0142, r26
     e8a:	b0 93 43 01 	sts	0x0143, r27
	task1.TickFct = &SMTick1;
     e8e:	83 ea       	ldi	r24, 0xA3	; 163
     e90:	94 e0       	ldi	r25, 0x04	; 4
     e92:	90 93 45 01 	sts	0x0145, r25
     e96:	80 93 44 01 	sts	0x0144, r24
	// Task 2
	task2.state = -1;
     e9a:	8f ef       	ldi	r24, 0xFF	; 255
     e9c:	80 93 46 01 	sts	0x0146, r24
	task2.period = SMTick2_period;
     ea0:	8b 8d       	ldd	r24, Y+27	; 0x1b
     ea2:	9c 8d       	ldd	r25, Y+28	; 0x1c
     ea4:	ad 8d       	ldd	r26, Y+29	; 0x1d
     ea6:	be 8d       	ldd	r27, Y+30	; 0x1e
     ea8:	80 93 47 01 	sts	0x0147, r24
     eac:	90 93 48 01 	sts	0x0148, r25
     eb0:	a0 93 49 01 	sts	0x0149, r26
     eb4:	b0 93 4a 01 	sts	0x014A, r27
	task2.elapsedTime = SMTick2_period;
     eb8:	8b 8d       	ldd	r24, Y+27	; 0x1b
     eba:	9c 8d       	ldd	r25, Y+28	; 0x1c
     ebc:	ad 8d       	ldd	r26, Y+29	; 0x1d
     ebe:	be 8d       	ldd	r27, Y+30	; 0x1e
     ec0:	80 93 4b 01 	sts	0x014B, r24
     ec4:	90 93 4c 01 	sts	0x014C, r25
     ec8:	a0 93 4d 01 	sts	0x014D, r26
     ecc:	b0 93 4e 01 	sts	0x014E, r27
	task2.TickFct = &SMTick2;
     ed0:	8c e4       	ldi	r24, 0x4C	; 76
     ed2:	95 e0       	ldi	r25, 0x05	; 5
     ed4:	90 93 50 01 	sts	0x0150, r25
     ed8:	80 93 4f 01 	sts	0x014F, r24
	// Task 3
	task3.state = -1;
     edc:	8f ef       	ldi	r24, 0xFF	; 255
     ede:	80 93 51 01 	sts	0x0151, r24
	task3.period = SMTick3_period;
     ee2:	8f 8d       	ldd	r24, Y+31	; 0x1f
     ee4:	98 a1       	ldd	r25, Y+32	; 0x20
     ee6:	a9 a1       	ldd	r26, Y+33	; 0x21
     ee8:	ba a1       	ldd	r27, Y+34	; 0x22
     eea:	80 93 52 01 	sts	0x0152, r24
     eee:	90 93 53 01 	sts	0x0153, r25
     ef2:	a0 93 54 01 	sts	0x0154, r26
     ef6:	b0 93 55 01 	sts	0x0155, r27
	task3.elapsedTime = SMTick3_period;
     efa:	8f 8d       	ldd	r24, Y+31	; 0x1f
     efc:	98 a1       	ldd	r25, Y+32	; 0x20
     efe:	a9 a1       	ldd	r26, Y+33	; 0x21
     f00:	ba a1       	ldd	r27, Y+34	; 0x22
     f02:	80 93 56 01 	sts	0x0156, r24
     f06:	90 93 57 01 	sts	0x0157, r25
     f0a:	a0 93 58 01 	sts	0x0158, r26
     f0e:	b0 93 59 01 	sts	0x0159, r27
	task3.TickFct = &SMTick3;
     f12:	85 e6       	ldi	r24, 0x65	; 101
     f14:	95 e0       	ldi	r25, 0x05	; 5
     f16:	90 93 5b 01 	sts	0x015B, r25
     f1a:	80 93 5a 01 	sts	0x015A, r24
	// Set the timer and turn it on
	TimerSet(GCD);
     f1e:	8b 89       	ldd	r24, Y+19	; 0x13
     f20:	9c 89       	ldd	r25, Y+20	; 0x14
     f22:	ad 89       	ldd	r26, Y+21	; 0x15
     f24:	be 89       	ldd	r27, Y+22	; 0x16
     f26:	bc 01       	movw	r22, r24
     f28:	cd 01       	movw	r24, r26
     f2a:	0e 94 5f 04 	call	0x8be	; 0x8be <TimerSet>
	TimerOn();
     f2e:	0e 94 b5 03 	call	0x76a	; 0x76a <TimerOn>
	
	initUSART(0);
     f32:	80 e0       	ldi	r24, 0x00	; 0
     f34:	0e 94 67 00 	call	0xce	; 0xce <initUSART>
	USART_Flush(0);
     f38:	80 e0       	ldi	r24, 0x00	; 0
     f3a:	0e 94 f3 00 	call	0x1e6	; 0x1e6 <USART_Flush>
	// Scheduler for-loop iterator
	unsigned short i;
	
	while(1) {		
		// Scheduler code
		for ( i = 0; i < numTasks; i++ ) {
     f3e:	1a 82       	std	Y+2, r1	; 0x02
     f40:	19 82       	std	Y+1, r1	; 0x01
     f42:	9b c0       	rjmp	.+310    	; 0x107a <main+0x3a2>
			// Task is ready to tick
			if ( tasks[i]->elapsedTime == tasks[i]->period ) {
     f44:	89 81       	ldd	r24, Y+1	; 0x01
     f46:	9a 81       	ldd	r25, Y+2	; 0x02
     f48:	88 0f       	add	r24, r24
     f4a:	99 1f       	adc	r25, r25
     f4c:	9e 01       	movw	r18, r28
     f4e:	2f 5f       	subi	r18, 0xFF	; 255
     f50:	3f 4f       	sbci	r19, 0xFF	; 255
     f52:	82 0f       	add	r24, r18
     f54:	93 1f       	adc	r25, r19
     f56:	84 96       	adiw	r24, 0x24	; 36
     f58:	fc 01       	movw	r30, r24
     f5a:	80 81       	ld	r24, Z
     f5c:	91 81       	ldd	r25, Z+1	; 0x01
     f5e:	fc 01       	movw	r30, r24
     f60:	25 81       	ldd	r18, Z+5	; 0x05
     f62:	36 81       	ldd	r19, Z+6	; 0x06
     f64:	47 81       	ldd	r20, Z+7	; 0x07
     f66:	50 85       	ldd	r21, Z+8	; 0x08
     f68:	89 81       	ldd	r24, Y+1	; 0x01
     f6a:	9a 81       	ldd	r25, Y+2	; 0x02
     f6c:	88 0f       	add	r24, r24
     f6e:	99 1f       	adc	r25, r25
     f70:	be 01       	movw	r22, r28
     f72:	6f 5f       	subi	r22, 0xFF	; 255
     f74:	7f 4f       	sbci	r23, 0xFF	; 255
     f76:	86 0f       	add	r24, r22
     f78:	97 1f       	adc	r25, r23
     f7a:	84 96       	adiw	r24, 0x24	; 36
     f7c:	fc 01       	movw	r30, r24
     f7e:	80 81       	ld	r24, Z
     f80:	91 81       	ldd	r25, Z+1	; 0x01
     f82:	fc 01       	movw	r30, r24
     f84:	81 81       	ldd	r24, Z+1	; 0x01
     f86:	92 81       	ldd	r25, Z+2	; 0x02
     f88:	a3 81       	ldd	r26, Z+3	; 0x03
     f8a:	b4 81       	ldd	r27, Z+4	; 0x04
     f8c:	28 17       	cp	r18, r24
     f8e:	39 07       	cpc	r19, r25
     f90:	4a 07       	cpc	r20, r26
     f92:	5b 07       	cpc	r21, r27
     f94:	09 f0       	breq	.+2      	; 0xf98 <main+0x2c0>
     f96:	45 c0       	rjmp	.+138    	; 0x1022 <main+0x34a>
				// Setting next state for task
				tasks[i]->state = tasks[i]->TickFct(tasks[i]->state);
     f98:	89 81       	ldd	r24, Y+1	; 0x01
     f9a:	9a 81       	ldd	r25, Y+2	; 0x02
     f9c:	88 0f       	add	r24, r24
     f9e:	99 1f       	adc	r25, r25
     fa0:	9e 01       	movw	r18, r28
     fa2:	2f 5f       	subi	r18, 0xFF	; 255
     fa4:	3f 4f       	sbci	r19, 0xFF	; 255
     fa6:	82 0f       	add	r24, r18
     fa8:	93 1f       	adc	r25, r19
     faa:	84 96       	adiw	r24, 0x24	; 36
     fac:	fc 01       	movw	r30, r24
     fae:	00 81       	ld	r16, Z
     fb0:	11 81       	ldd	r17, Z+1	; 0x01
     fb2:	89 81       	ldd	r24, Y+1	; 0x01
     fb4:	9a 81       	ldd	r25, Y+2	; 0x02
     fb6:	88 0f       	add	r24, r24
     fb8:	99 1f       	adc	r25, r25
     fba:	9e 01       	movw	r18, r28
     fbc:	2f 5f       	subi	r18, 0xFF	; 255
     fbe:	3f 4f       	sbci	r19, 0xFF	; 255
     fc0:	82 0f       	add	r24, r18
     fc2:	93 1f       	adc	r25, r19
     fc4:	84 96       	adiw	r24, 0x24	; 36
     fc6:	fc 01       	movw	r30, r24
     fc8:	80 81       	ld	r24, Z
     fca:	91 81       	ldd	r25, Z+1	; 0x01
     fcc:	fc 01       	movw	r30, r24
     fce:	21 85       	ldd	r18, Z+9	; 0x09
     fd0:	32 85       	ldd	r19, Z+10	; 0x0a
     fd2:	89 81       	ldd	r24, Y+1	; 0x01
     fd4:	9a 81       	ldd	r25, Y+2	; 0x02
     fd6:	88 0f       	add	r24, r24
     fd8:	99 1f       	adc	r25, r25
     fda:	ae 01       	movw	r20, r28
     fdc:	4f 5f       	subi	r20, 0xFF	; 255
     fde:	5f 4f       	sbci	r21, 0xFF	; 255
     fe0:	84 0f       	add	r24, r20
     fe2:	95 1f       	adc	r25, r21
     fe4:	84 96       	adiw	r24, 0x24	; 36
     fe6:	fc 01       	movw	r30, r24
     fe8:	80 81       	ld	r24, Z
     fea:	91 81       	ldd	r25, Z+1	; 0x01
     fec:	fc 01       	movw	r30, r24
     fee:	80 81       	ld	r24, Z
     ff0:	99 27       	eor	r25, r25
     ff2:	87 fd       	sbrc	r24, 7
     ff4:	90 95       	com	r25
     ff6:	f9 01       	movw	r30, r18
     ff8:	09 95       	icall
     ffa:	f8 01       	movw	r30, r16
     ffc:	80 83       	st	Z, r24
				// Reset elapsed time for next tick.
				tasks[i]->elapsedTime = 0;
     ffe:	89 81       	ldd	r24, Y+1	; 0x01
    1000:	9a 81       	ldd	r25, Y+2	; 0x02
    1002:	88 0f       	add	r24, r24
    1004:	99 1f       	adc	r25, r25
    1006:	9e 01       	movw	r18, r28
    1008:	2f 5f       	subi	r18, 0xFF	; 255
    100a:	3f 4f       	sbci	r19, 0xFF	; 255
    100c:	82 0f       	add	r24, r18
    100e:	93 1f       	adc	r25, r19
    1010:	84 96       	adiw	r24, 0x24	; 36
    1012:	fc 01       	movw	r30, r24
    1014:	80 81       	ld	r24, Z
    1016:	91 81       	ldd	r25, Z+1	; 0x01
    1018:	fc 01       	movw	r30, r24
    101a:	15 82       	std	Z+5, r1	; 0x05
    101c:	16 82       	std	Z+6, r1	; 0x06
    101e:	17 82       	std	Z+7, r1	; 0x07
    1020:	10 86       	std	Z+8, r1	; 0x08
			}
			tasks[i]->elapsedTime += 1;
    1022:	89 81       	ldd	r24, Y+1	; 0x01
    1024:	9a 81       	ldd	r25, Y+2	; 0x02
    1026:	88 0f       	add	r24, r24
    1028:	99 1f       	adc	r25, r25
    102a:	9e 01       	movw	r18, r28
    102c:	2f 5f       	subi	r18, 0xFF	; 255
    102e:	3f 4f       	sbci	r19, 0xFF	; 255
    1030:	82 0f       	add	r24, r18
    1032:	93 1f       	adc	r25, r19
    1034:	84 96       	adiw	r24, 0x24	; 36
    1036:	fc 01       	movw	r30, r24
    1038:	20 81       	ld	r18, Z
    103a:	31 81       	ldd	r19, Z+1	; 0x01
    103c:	89 81       	ldd	r24, Y+1	; 0x01
    103e:	9a 81       	ldd	r25, Y+2	; 0x02
    1040:	88 0f       	add	r24, r24
    1042:	99 1f       	adc	r25, r25
    1044:	ae 01       	movw	r20, r28
    1046:	4f 5f       	subi	r20, 0xFF	; 255
    1048:	5f 4f       	sbci	r21, 0xFF	; 255
    104a:	84 0f       	add	r24, r20
    104c:	95 1f       	adc	r25, r21
    104e:	84 96       	adiw	r24, 0x24	; 36
    1050:	fc 01       	movw	r30, r24
    1052:	80 81       	ld	r24, Z
    1054:	91 81       	ldd	r25, Z+1	; 0x01
    1056:	fc 01       	movw	r30, r24
    1058:	85 81       	ldd	r24, Z+5	; 0x05
    105a:	96 81       	ldd	r25, Z+6	; 0x06
    105c:	a7 81       	ldd	r26, Z+7	; 0x07
    105e:	b0 85       	ldd	r27, Z+8	; 0x08
    1060:	01 96       	adiw	r24, 0x01	; 1
    1062:	a1 1d       	adc	r26, r1
    1064:	b1 1d       	adc	r27, r1
    1066:	f9 01       	movw	r30, r18
    1068:	85 83       	std	Z+5, r24	; 0x05
    106a:	96 83       	std	Z+6, r25	; 0x06
    106c:	a7 83       	std	Z+7, r26	; 0x07
    106e:	b0 87       	std	Z+8, r27	; 0x08
	// Scheduler for-loop iterator
	unsigned short i;
	
	while(1) {		
		// Scheduler code
		for ( i = 0; i < numTasks; i++ ) {
    1070:	89 81       	ldd	r24, Y+1	; 0x01
    1072:	9a 81       	ldd	r25, Y+2	; 0x02
    1074:	01 96       	adiw	r24, 0x01	; 1
    1076:	9a 83       	std	Y+2, r25	; 0x02
    1078:	89 83       	std	Y+1, r24	; 0x01
    107a:	29 81       	ldd	r18, Y+1	; 0x01
    107c:	3a 81       	ldd	r19, Y+2	; 0x02
    107e:	8b a1       	ldd	r24, Y+35	; 0x23
    1080:	9c a1       	ldd	r25, Y+36	; 0x24
    1082:	28 17       	cp	r18, r24
    1084:	39 07       	cpc	r19, r25
    1086:	08 f4       	brcc	.+2      	; 0x108a <main+0x3b2>
    1088:	5d cf       	rjmp	.-326    	; 0xf44 <main+0x26c>
				// Reset elapsed time for next tick.
				tasks[i]->elapsedTime = 0;
			}
			tasks[i]->elapsedTime += 1;
		}
		while(!TimerFlag);
    108a:	00 00       	nop
    108c:	80 91 2c 01 	lds	r24, 0x012C
    1090:	88 23       	and	r24, r24
    1092:	e1 f3       	breq	.-8      	; 0x108c <main+0x3b4>
		TimerFlag = 0;
    1094:	10 92 2c 01 	sts	0x012C, r1
	}
    1098:	52 cf       	rjmp	.-348    	; 0xf3e <main+0x266>

0000109a <LCD_ClearScreen>:
#define RS 6			// pin number of uC connected to pin 4 of LCD disp.
#define E 7			// pin number of uC connected to pin 6 of LCD disp.

/*-------------------------------------------------------------------------*/

void LCD_ClearScreen(void) {
    109a:	df 93       	push	r29
    109c:	cf 93       	push	r28
    109e:	cd b7       	in	r28, 0x3d	; 61
    10a0:	de b7       	in	r29, 0x3e	; 62
   LCD_WriteCommand(0x01);
    10a2:	81 e0       	ldi	r24, 0x01	; 1
    10a4:	0e 94 72 08 	call	0x10e4	; 0x10e4 <LCD_WriteCommand>
}
    10a8:	cf 91       	pop	r28
    10aa:	df 91       	pop	r29
    10ac:	08 95       	ret

000010ae <LCD_init>:

void LCD_init(void) {
    10ae:	df 93       	push	r29
    10b0:	cf 93       	push	r28
    10b2:	cd b7       	in	r28, 0x3d	; 61
    10b4:	de b7       	in	r29, 0x3e	; 62

    //wait for 100 ms.
	delay_ms(100);
    10b6:	84 e6       	ldi	r24, 0x64	; 100
    10b8:	90 e0       	ldi	r25, 0x00	; 0
    10ba:	0e 94 13 09 	call	0x1226	; 0x1226 <delay_ms>
	LCD_WriteCommand(0x38);
    10be:	88 e3       	ldi	r24, 0x38	; 56
    10c0:	0e 94 72 08 	call	0x10e4	; 0x10e4 <LCD_WriteCommand>
	LCD_WriteCommand(0x06);
    10c4:	86 e0       	ldi	r24, 0x06	; 6
    10c6:	0e 94 72 08 	call	0x10e4	; 0x10e4 <LCD_WriteCommand>
	LCD_WriteCommand(0x0f);
    10ca:	8f e0       	ldi	r24, 0x0F	; 15
    10cc:	0e 94 72 08 	call	0x10e4	; 0x10e4 <LCD_WriteCommand>
	LCD_WriteCommand(0x01);
    10d0:	81 e0       	ldi	r24, 0x01	; 1
    10d2:	0e 94 72 08 	call	0x10e4	; 0x10e4 <LCD_WriteCommand>
	delay_ms(10);						 
    10d6:	8a e0       	ldi	r24, 0x0A	; 10
    10d8:	90 e0       	ldi	r25, 0x00	; 0
    10da:	0e 94 13 09 	call	0x1226	; 0x1226 <delay_ms>
}
    10de:	cf 91       	pop	r28
    10e0:	df 91       	pop	r29
    10e2:	08 95       	ret

000010e4 <LCD_WriteCommand>:

void LCD_WriteCommand (unsigned char Command) {
    10e4:	df 93       	push	r29
    10e6:	cf 93       	push	r28
    10e8:	0f 92       	push	r0
    10ea:	cd b7       	in	r28, 0x3d	; 61
    10ec:	de b7       	in	r29, 0x3e	; 62
    10ee:	89 83       	std	Y+1, r24	; 0x01
   CLR_BIT(CONTROL_BUS,RS);
    10f0:	8b e2       	ldi	r24, 0x2B	; 43
    10f2:	90 e0       	ldi	r25, 0x00	; 0
    10f4:	2b e2       	ldi	r18, 0x2B	; 43
    10f6:	30 e0       	ldi	r19, 0x00	; 0
    10f8:	f9 01       	movw	r30, r18
    10fa:	20 81       	ld	r18, Z
    10fc:	2f 7b       	andi	r18, 0xBF	; 191
    10fe:	fc 01       	movw	r30, r24
    1100:	20 83       	st	Z, r18
   DATA_BUS = Command;
    1102:	88 e2       	ldi	r24, 0x28	; 40
    1104:	90 e0       	ldi	r25, 0x00	; 0
    1106:	29 81       	ldd	r18, Y+1	; 0x01
    1108:	fc 01       	movw	r30, r24
    110a:	20 83       	st	Z, r18
   SET_BIT(CONTROL_BUS,E);
    110c:	8b e2       	ldi	r24, 0x2B	; 43
    110e:	90 e0       	ldi	r25, 0x00	; 0
    1110:	2b e2       	ldi	r18, 0x2B	; 43
    1112:	30 e0       	ldi	r19, 0x00	; 0
    1114:	f9 01       	movw	r30, r18
    1116:	20 81       	ld	r18, Z
    1118:	20 68       	ori	r18, 0x80	; 128
    111a:	fc 01       	movw	r30, r24
    111c:	20 83       	st	Z, r18
   asm("nop");
    111e:	00 00       	nop
   CLR_BIT(CONTROL_BUS,E);
    1120:	8b e2       	ldi	r24, 0x2B	; 43
    1122:	90 e0       	ldi	r25, 0x00	; 0
    1124:	2b e2       	ldi	r18, 0x2B	; 43
    1126:	30 e0       	ldi	r19, 0x00	; 0
    1128:	f9 01       	movw	r30, r18
    112a:	20 81       	ld	r18, Z
    112c:	2f 77       	andi	r18, 0x7F	; 127
    112e:	fc 01       	movw	r30, r24
    1130:	20 83       	st	Z, r18
   delay_ms(2); // ClearScreen requires 1.52ms to execute
    1132:	82 e0       	ldi	r24, 0x02	; 2
    1134:	90 e0       	ldi	r25, 0x00	; 0
    1136:	0e 94 13 09 	call	0x1226	; 0x1226 <delay_ms>
}
    113a:	0f 90       	pop	r0
    113c:	cf 91       	pop	r28
    113e:	df 91       	pop	r29
    1140:	08 95       	ret

00001142 <LCD_WriteData>:

void LCD_WriteData(unsigned char Data) {
    1142:	df 93       	push	r29
    1144:	cf 93       	push	r28
    1146:	0f 92       	push	r0
    1148:	cd b7       	in	r28, 0x3d	; 61
    114a:	de b7       	in	r29, 0x3e	; 62
    114c:	89 83       	std	Y+1, r24	; 0x01
   SET_BIT(CONTROL_BUS,RS);
    114e:	8b e2       	ldi	r24, 0x2B	; 43
    1150:	90 e0       	ldi	r25, 0x00	; 0
    1152:	2b e2       	ldi	r18, 0x2B	; 43
    1154:	30 e0       	ldi	r19, 0x00	; 0
    1156:	f9 01       	movw	r30, r18
    1158:	20 81       	ld	r18, Z
    115a:	20 64       	ori	r18, 0x40	; 64
    115c:	fc 01       	movw	r30, r24
    115e:	20 83       	st	Z, r18
   DATA_BUS = Data;
    1160:	88 e2       	ldi	r24, 0x28	; 40
    1162:	90 e0       	ldi	r25, 0x00	; 0
    1164:	29 81       	ldd	r18, Y+1	; 0x01
    1166:	fc 01       	movw	r30, r24
    1168:	20 83       	st	Z, r18
   SET_BIT(CONTROL_BUS,E);
    116a:	8b e2       	ldi	r24, 0x2B	; 43
    116c:	90 e0       	ldi	r25, 0x00	; 0
    116e:	2b e2       	ldi	r18, 0x2B	; 43
    1170:	30 e0       	ldi	r19, 0x00	; 0
    1172:	f9 01       	movw	r30, r18
    1174:	20 81       	ld	r18, Z
    1176:	20 68       	ori	r18, 0x80	; 128
    1178:	fc 01       	movw	r30, r24
    117a:	20 83       	st	Z, r18
   asm("nop");
    117c:	00 00       	nop
   CLR_BIT(CONTROL_BUS,E);
    117e:	8b e2       	ldi	r24, 0x2B	; 43
    1180:	90 e0       	ldi	r25, 0x00	; 0
    1182:	2b e2       	ldi	r18, 0x2B	; 43
    1184:	30 e0       	ldi	r19, 0x00	; 0
    1186:	f9 01       	movw	r30, r18
    1188:	20 81       	ld	r18, Z
    118a:	2f 77       	andi	r18, 0x7F	; 127
    118c:	fc 01       	movw	r30, r24
    118e:	20 83       	st	Z, r18
   delay_ms(1);
    1190:	81 e0       	ldi	r24, 0x01	; 1
    1192:	90 e0       	ldi	r25, 0x00	; 0
    1194:	0e 94 13 09 	call	0x1226	; 0x1226 <delay_ms>
}
    1198:	0f 90       	pop	r0
    119a:	cf 91       	pop	r28
    119c:	df 91       	pop	r29
    119e:	08 95       	ret

000011a0 <LCD_DisplayString>:

void LCD_DisplayString( unsigned char column, const unsigned char* string) {
    11a0:	df 93       	push	r29
    11a2:	cf 93       	push	r28
    11a4:	00 d0       	rcall	.+0      	; 0x11a6 <LCD_DisplayString+0x6>
    11a6:	00 d0       	rcall	.+0      	; 0x11a8 <LCD_DisplayString+0x8>
    11a8:	cd b7       	in	r28, 0x3d	; 61
    11aa:	de b7       	in	r29, 0x3e	; 62
    11ac:	8a 83       	std	Y+2, r24	; 0x02
    11ae:	7c 83       	std	Y+4, r23	; 0x04
    11b0:	6b 83       	std	Y+3, r22	; 0x03
   LCD_ClearScreen();
    11b2:	0e 94 4d 08 	call	0x109a	; 0x109a <LCD_ClearScreen>
   unsigned char c = column;
    11b6:	8a 81       	ldd	r24, Y+2	; 0x02
    11b8:	89 83       	std	Y+1, r24	; 0x01
   while(*string) {
    11ba:	12 c0       	rjmp	.+36     	; 0x11e0 <LCD_DisplayString+0x40>
      LCD_Cursor(c++);
    11bc:	89 81       	ldd	r24, Y+1	; 0x01
    11be:	99 81       	ldd	r25, Y+1	; 0x01
    11c0:	9f 5f       	subi	r25, 0xFF	; 255
    11c2:	99 83       	std	Y+1, r25	; 0x01
    11c4:	0e 94 fd 08 	call	0x11fa	; 0x11fa <LCD_Cursor>
      LCD_WriteData(*string++);
    11c8:	8b 81       	ldd	r24, Y+3	; 0x03
    11ca:	9c 81       	ldd	r25, Y+4	; 0x04
    11cc:	fc 01       	movw	r30, r24
    11ce:	20 81       	ld	r18, Z
    11d0:	8b 81       	ldd	r24, Y+3	; 0x03
    11d2:	9c 81       	ldd	r25, Y+4	; 0x04
    11d4:	01 96       	adiw	r24, 0x01	; 1
    11d6:	9c 83       	std	Y+4, r25	; 0x04
    11d8:	8b 83       	std	Y+3, r24	; 0x03
    11da:	82 2f       	mov	r24, r18
    11dc:	0e 94 a1 08 	call	0x1142	; 0x1142 <LCD_WriteData>
}

void LCD_DisplayString( unsigned char column, const unsigned char* string) {
   LCD_ClearScreen();
   unsigned char c = column;
   while(*string) {
    11e0:	8b 81       	ldd	r24, Y+3	; 0x03
    11e2:	9c 81       	ldd	r25, Y+4	; 0x04
    11e4:	fc 01       	movw	r30, r24
    11e6:	80 81       	ld	r24, Z
    11e8:	88 23       	and	r24, r24
    11ea:	41 f7       	brne	.-48     	; 0x11bc <LCD_DisplayString+0x1c>
      LCD_Cursor(c++);
      LCD_WriteData(*string++);
   }
}
    11ec:	0f 90       	pop	r0
    11ee:	0f 90       	pop	r0
    11f0:	0f 90       	pop	r0
    11f2:	0f 90       	pop	r0
    11f4:	cf 91       	pop	r28
    11f6:	df 91       	pop	r29
    11f8:	08 95       	ret

000011fa <LCD_Cursor>:

void LCD_Cursor(unsigned char column) {
    11fa:	df 93       	push	r29
    11fc:	cf 93       	push	r28
    11fe:	0f 92       	push	r0
    1200:	cd b7       	in	r28, 0x3d	; 61
    1202:	de b7       	in	r29, 0x3e	; 62
    1204:	89 83       	std	Y+1, r24	; 0x01
   if ( column < 17 ) { // 16x1 LCD: column < 9
    1206:	89 81       	ldd	r24, Y+1	; 0x01
    1208:	81 31       	cpi	r24, 0x11	; 17
    120a:	28 f4       	brcc	.+10     	; 0x1216 <LCD_Cursor+0x1c>
						// 16x2 LCD: column < 17
      LCD_WriteCommand(0x80 + column - 1);
    120c:	89 81       	ldd	r24, Y+1	; 0x01
    120e:	81 58       	subi	r24, 0x81	; 129
    1210:	0e 94 72 08 	call	0x10e4	; 0x10e4 <LCD_WriteCommand>
    1214:	04 c0       	rjmp	.+8      	; 0x121e <LCD_Cursor+0x24>
   } else {
      LCD_WriteCommand(0xB8 + column - 9);	// 16x1 LCD: column - 1
    1216:	89 81       	ldd	r24, Y+1	; 0x01
    1218:	81 55       	subi	r24, 0x51	; 81
    121a:	0e 94 72 08 	call	0x10e4	; 0x10e4 <LCD_WriteCommand>
											// 16x2 LCD: column - 9
   }
}
    121e:	0f 90       	pop	r0
    1220:	cf 91       	pop	r28
    1222:	df 91       	pop	r29
    1224:	08 95       	ret

00001226 <delay_ms>:

void delay_ms(int miliSec) //for 8 Mhz crystal

{
    1226:	df 93       	push	r29
    1228:	cf 93       	push	r28
    122a:	00 d0       	rcall	.+0      	; 0x122c <delay_ms+0x6>
    122c:	00 d0       	rcall	.+0      	; 0x122e <delay_ms+0x8>
    122e:	00 d0       	rcall	.+0      	; 0x1230 <delay_ms+0xa>
    1230:	cd b7       	in	r28, 0x3d	; 61
    1232:	de b7       	in	r29, 0x3e	; 62
    1234:	9e 83       	std	Y+6, r25	; 0x06
    1236:	8d 83       	std	Y+5, r24	; 0x05
    int i,j;
    for(i=0;i<miliSec;i++)
    1238:	1a 82       	std	Y+2, r1	; 0x02
    123a:	19 82       	std	Y+1, r1	; 0x01
    123c:	14 c0       	rjmp	.+40     	; 0x1266 <delay_ms+0x40>
    for(j=0;j<775;j++)
    123e:	1c 82       	std	Y+4, r1	; 0x04
    1240:	1b 82       	std	Y+3, r1	; 0x03
    1242:	06 c0       	rjmp	.+12     	; 0x1250 <delay_ms+0x2a>
  {
   asm("nop");
    1244:	00 00       	nop
void delay_ms(int miliSec) //for 8 Mhz crystal

{
    int i,j;
    for(i=0;i<miliSec;i++)
    for(j=0;j<775;j++)
    1246:	8b 81       	ldd	r24, Y+3	; 0x03
    1248:	9c 81       	ldd	r25, Y+4	; 0x04
    124a:	01 96       	adiw	r24, 0x01	; 1
    124c:	9c 83       	std	Y+4, r25	; 0x04
    124e:	8b 83       	std	Y+3, r24	; 0x03
    1250:	8b 81       	ldd	r24, Y+3	; 0x03
    1252:	9c 81       	ldd	r25, Y+4	; 0x04
    1254:	23 e0       	ldi	r18, 0x03	; 3
    1256:	87 30       	cpi	r24, 0x07	; 7
    1258:	92 07       	cpc	r25, r18
    125a:	a4 f3       	brlt	.-24     	; 0x1244 <delay_ms+0x1e>

void delay_ms(int miliSec) //for 8 Mhz crystal

{
    int i,j;
    for(i=0;i<miliSec;i++)
    125c:	89 81       	ldd	r24, Y+1	; 0x01
    125e:	9a 81       	ldd	r25, Y+2	; 0x02
    1260:	01 96       	adiw	r24, 0x01	; 1
    1262:	9a 83       	std	Y+2, r25	; 0x02
    1264:	89 83       	std	Y+1, r24	; 0x01
    1266:	29 81       	ldd	r18, Y+1	; 0x01
    1268:	3a 81       	ldd	r19, Y+2	; 0x02
    126a:	8d 81       	ldd	r24, Y+5	; 0x05
    126c:	9e 81       	ldd	r25, Y+6	; 0x06
    126e:	28 17       	cp	r18, r24
    1270:	39 07       	cpc	r19, r25
    1272:	2c f3       	brlt	.-54     	; 0x123e <delay_ms+0x18>
    for(j=0;j<775;j++)
  {
   asm("nop");
  }
}
    1274:	26 96       	adiw	r28, 0x06	; 6
    1276:	0f b6       	in	r0, 0x3f	; 63
    1278:	f8 94       	cli
    127a:	de bf       	out	0x3e, r29	; 62
    127c:	0f be       	out	0x3f, r0	; 63
    127e:	cd bf       	out	0x3d, r28	; 61
    1280:	cf 91       	pop	r28
    1282:	df 91       	pop	r29
    1284:	08 95       	ret

00001286 <__cmpsf2>:
    1286:	9c d0       	rcall	.+312    	; 0x13c0 <__fp_cmp>
    1288:	08 f4       	brcc	.+2      	; 0x128c <__cmpsf2+0x6>
    128a:	81 e0       	ldi	r24, 0x01	; 1
    128c:	08 95       	ret

0000128e <__divsf3>:
    128e:	0c d0       	rcall	.+24     	; 0x12a8 <__divsf3x>
    1290:	d2 c0       	rjmp	.+420    	; 0x1436 <__fp_round>
    1292:	ca d0       	rcall	.+404    	; 0x1428 <__fp_pscB>
    1294:	40 f0       	brcs	.+16     	; 0x12a6 <__divsf3+0x18>
    1296:	c1 d0       	rcall	.+386    	; 0x141a <__fp_pscA>
    1298:	30 f0       	brcs	.+12     	; 0x12a6 <__divsf3+0x18>
    129a:	21 f4       	brne	.+8      	; 0x12a4 <__divsf3+0x16>
    129c:	5f 3f       	cpi	r21, 0xFF	; 255
    129e:	19 f0       	breq	.+6      	; 0x12a6 <__divsf3+0x18>
    12a0:	b3 c0       	rjmp	.+358    	; 0x1408 <__fp_inf>
    12a2:	51 11       	cpse	r21, r1
    12a4:	fc c0       	rjmp	.+504    	; 0x149e <__fp_szero>
    12a6:	b6 c0       	rjmp	.+364    	; 0x1414 <__fp_nan>

000012a8 <__divsf3x>:
    12a8:	d7 d0       	rcall	.+430    	; 0x1458 <__fp_split3>
    12aa:	98 f3       	brcs	.-26     	; 0x1292 <__divsf3+0x4>

000012ac <__divsf3_pse>:
    12ac:	99 23       	and	r25, r25
    12ae:	c9 f3       	breq	.-14     	; 0x12a2 <__divsf3+0x14>
    12b0:	55 23       	and	r21, r21
    12b2:	b1 f3       	breq	.-20     	; 0x12a0 <__divsf3+0x12>
    12b4:	95 1b       	sub	r25, r21
    12b6:	55 0b       	sbc	r21, r21
    12b8:	bb 27       	eor	r27, r27
    12ba:	aa 27       	eor	r26, r26
    12bc:	62 17       	cp	r22, r18
    12be:	73 07       	cpc	r23, r19
    12c0:	84 07       	cpc	r24, r20
    12c2:	38 f0       	brcs	.+14     	; 0x12d2 <__divsf3_pse+0x26>
    12c4:	9f 5f       	subi	r25, 0xFF	; 255
    12c6:	5f 4f       	sbci	r21, 0xFF	; 255
    12c8:	22 0f       	add	r18, r18
    12ca:	33 1f       	adc	r19, r19
    12cc:	44 1f       	adc	r20, r20
    12ce:	aa 1f       	adc	r26, r26
    12d0:	a9 f3       	breq	.-22     	; 0x12bc <__divsf3_pse+0x10>
    12d2:	33 d0       	rcall	.+102    	; 0x133a <__divsf3_pse+0x8e>
    12d4:	0e 2e       	mov	r0, r30
    12d6:	3a f0       	brmi	.+14     	; 0x12e6 <__divsf3_pse+0x3a>
    12d8:	e0 e8       	ldi	r30, 0x80	; 128
    12da:	30 d0       	rcall	.+96     	; 0x133c <__divsf3_pse+0x90>
    12dc:	91 50       	subi	r25, 0x01	; 1
    12de:	50 40       	sbci	r21, 0x00	; 0
    12e0:	e6 95       	lsr	r30
    12e2:	00 1c       	adc	r0, r0
    12e4:	ca f7       	brpl	.-14     	; 0x12d8 <__divsf3_pse+0x2c>
    12e6:	29 d0       	rcall	.+82     	; 0x133a <__divsf3_pse+0x8e>
    12e8:	fe 2f       	mov	r31, r30
    12ea:	27 d0       	rcall	.+78     	; 0x133a <__divsf3_pse+0x8e>
    12ec:	66 0f       	add	r22, r22
    12ee:	77 1f       	adc	r23, r23
    12f0:	88 1f       	adc	r24, r24
    12f2:	bb 1f       	adc	r27, r27
    12f4:	26 17       	cp	r18, r22
    12f6:	37 07       	cpc	r19, r23
    12f8:	48 07       	cpc	r20, r24
    12fa:	ab 07       	cpc	r26, r27
    12fc:	b0 e8       	ldi	r27, 0x80	; 128
    12fe:	09 f0       	breq	.+2      	; 0x1302 <__divsf3_pse+0x56>
    1300:	bb 0b       	sbc	r27, r27
    1302:	80 2d       	mov	r24, r0
    1304:	bf 01       	movw	r22, r30
    1306:	ff 27       	eor	r31, r31
    1308:	93 58       	subi	r25, 0x83	; 131
    130a:	5f 4f       	sbci	r21, 0xFF	; 255
    130c:	2a f0       	brmi	.+10     	; 0x1318 <__divsf3_pse+0x6c>
    130e:	9e 3f       	cpi	r25, 0xFE	; 254
    1310:	51 05       	cpc	r21, r1
    1312:	68 f0       	brcs	.+26     	; 0x132e <__divsf3_pse+0x82>
    1314:	79 c0       	rjmp	.+242    	; 0x1408 <__fp_inf>
    1316:	c3 c0       	rjmp	.+390    	; 0x149e <__fp_szero>
    1318:	5f 3f       	cpi	r21, 0xFF	; 255
    131a:	ec f3       	brlt	.-6      	; 0x1316 <__divsf3_pse+0x6a>
    131c:	98 3e       	cpi	r25, 0xE8	; 232
    131e:	dc f3       	brlt	.-10     	; 0x1316 <__divsf3_pse+0x6a>
    1320:	86 95       	lsr	r24
    1322:	77 95       	ror	r23
    1324:	67 95       	ror	r22
    1326:	b7 95       	ror	r27
    1328:	f7 95       	ror	r31
    132a:	9f 5f       	subi	r25, 0xFF	; 255
    132c:	c9 f7       	brne	.-14     	; 0x1320 <__divsf3_pse+0x74>
    132e:	88 0f       	add	r24, r24
    1330:	91 1d       	adc	r25, r1
    1332:	96 95       	lsr	r25
    1334:	87 95       	ror	r24
    1336:	97 f9       	bld	r25, 7
    1338:	08 95       	ret
    133a:	e1 e0       	ldi	r30, 0x01	; 1
    133c:	66 0f       	add	r22, r22
    133e:	77 1f       	adc	r23, r23
    1340:	88 1f       	adc	r24, r24
    1342:	bb 1f       	adc	r27, r27
    1344:	62 17       	cp	r22, r18
    1346:	73 07       	cpc	r23, r19
    1348:	84 07       	cpc	r24, r20
    134a:	ba 07       	cpc	r27, r26
    134c:	20 f0       	brcs	.+8      	; 0x1356 <__divsf3_pse+0xaa>
    134e:	62 1b       	sub	r22, r18
    1350:	73 0b       	sbc	r23, r19
    1352:	84 0b       	sbc	r24, r20
    1354:	ba 0b       	sbc	r27, r26
    1356:	ee 1f       	adc	r30, r30
    1358:	88 f7       	brcc	.-30     	; 0x133c <__divsf3_pse+0x90>
    135a:	e0 95       	com	r30
    135c:	08 95       	ret

0000135e <__fixsfsi>:
    135e:	04 d0       	rcall	.+8      	; 0x1368 <__fixunssfsi>
    1360:	68 94       	set
    1362:	b1 11       	cpse	r27, r1
    1364:	9c c0       	rjmp	.+312    	; 0x149e <__fp_szero>
    1366:	08 95       	ret

00001368 <__fixunssfsi>:
    1368:	7f d0       	rcall	.+254    	; 0x1468 <__fp_splitA>
    136a:	88 f0       	brcs	.+34     	; 0x138e <__fixunssfsi+0x26>
    136c:	9f 57       	subi	r25, 0x7F	; 127
    136e:	90 f0       	brcs	.+36     	; 0x1394 <__fixunssfsi+0x2c>
    1370:	b9 2f       	mov	r27, r25
    1372:	99 27       	eor	r25, r25
    1374:	b7 51       	subi	r27, 0x17	; 23
    1376:	a0 f0       	brcs	.+40     	; 0x13a0 <__fixunssfsi+0x38>
    1378:	d1 f0       	breq	.+52     	; 0x13ae <__fixunssfsi+0x46>
    137a:	66 0f       	add	r22, r22
    137c:	77 1f       	adc	r23, r23
    137e:	88 1f       	adc	r24, r24
    1380:	99 1f       	adc	r25, r25
    1382:	1a f0       	brmi	.+6      	; 0x138a <__fixunssfsi+0x22>
    1384:	ba 95       	dec	r27
    1386:	c9 f7       	brne	.-14     	; 0x137a <__fixunssfsi+0x12>
    1388:	12 c0       	rjmp	.+36     	; 0x13ae <__fixunssfsi+0x46>
    138a:	b1 30       	cpi	r27, 0x01	; 1
    138c:	81 f0       	breq	.+32     	; 0x13ae <__fixunssfsi+0x46>
    138e:	86 d0       	rcall	.+268    	; 0x149c <__fp_zero>
    1390:	b1 e0       	ldi	r27, 0x01	; 1
    1392:	08 95       	ret
    1394:	83 c0       	rjmp	.+262    	; 0x149c <__fp_zero>
    1396:	67 2f       	mov	r22, r23
    1398:	78 2f       	mov	r23, r24
    139a:	88 27       	eor	r24, r24
    139c:	b8 5f       	subi	r27, 0xF8	; 248
    139e:	39 f0       	breq	.+14     	; 0x13ae <__fixunssfsi+0x46>
    13a0:	b9 3f       	cpi	r27, 0xF9	; 249
    13a2:	cc f3       	brlt	.-14     	; 0x1396 <__fixunssfsi+0x2e>
    13a4:	86 95       	lsr	r24
    13a6:	77 95       	ror	r23
    13a8:	67 95       	ror	r22
    13aa:	b3 95       	inc	r27
    13ac:	d9 f7       	brne	.-10     	; 0x13a4 <__fixunssfsi+0x3c>
    13ae:	3e f4       	brtc	.+14     	; 0x13be <__fixunssfsi+0x56>
    13b0:	90 95       	com	r25
    13b2:	80 95       	com	r24
    13b4:	70 95       	com	r23
    13b6:	61 95       	neg	r22
    13b8:	7f 4f       	sbci	r23, 0xFF	; 255
    13ba:	8f 4f       	sbci	r24, 0xFF	; 255
    13bc:	9f 4f       	sbci	r25, 0xFF	; 255
    13be:	08 95       	ret

000013c0 <__fp_cmp>:
    13c0:	99 0f       	add	r25, r25
    13c2:	00 08       	sbc	r0, r0
    13c4:	55 0f       	add	r21, r21
    13c6:	aa 0b       	sbc	r26, r26
    13c8:	e0 e8       	ldi	r30, 0x80	; 128
    13ca:	fe ef       	ldi	r31, 0xFE	; 254
    13cc:	16 16       	cp	r1, r22
    13ce:	17 06       	cpc	r1, r23
    13d0:	e8 07       	cpc	r30, r24
    13d2:	f9 07       	cpc	r31, r25
    13d4:	c0 f0       	brcs	.+48     	; 0x1406 <__fp_cmp+0x46>
    13d6:	12 16       	cp	r1, r18
    13d8:	13 06       	cpc	r1, r19
    13da:	e4 07       	cpc	r30, r20
    13dc:	f5 07       	cpc	r31, r21
    13de:	98 f0       	brcs	.+38     	; 0x1406 <__fp_cmp+0x46>
    13e0:	62 1b       	sub	r22, r18
    13e2:	73 0b       	sbc	r23, r19
    13e4:	84 0b       	sbc	r24, r20
    13e6:	95 0b       	sbc	r25, r21
    13e8:	39 f4       	brne	.+14     	; 0x13f8 <__fp_cmp+0x38>
    13ea:	0a 26       	eor	r0, r26
    13ec:	61 f0       	breq	.+24     	; 0x1406 <__fp_cmp+0x46>
    13ee:	23 2b       	or	r18, r19
    13f0:	24 2b       	or	r18, r20
    13f2:	25 2b       	or	r18, r21
    13f4:	21 f4       	brne	.+8      	; 0x13fe <__fp_cmp+0x3e>
    13f6:	08 95       	ret
    13f8:	0a 26       	eor	r0, r26
    13fa:	09 f4       	brne	.+2      	; 0x13fe <__fp_cmp+0x3e>
    13fc:	a1 40       	sbci	r26, 0x01	; 1
    13fe:	a6 95       	lsr	r26
    1400:	8f ef       	ldi	r24, 0xFF	; 255
    1402:	81 1d       	adc	r24, r1
    1404:	81 1d       	adc	r24, r1
    1406:	08 95       	ret

00001408 <__fp_inf>:
    1408:	97 f9       	bld	r25, 7
    140a:	9f 67       	ori	r25, 0x7F	; 127
    140c:	80 e8       	ldi	r24, 0x80	; 128
    140e:	70 e0       	ldi	r23, 0x00	; 0
    1410:	60 e0       	ldi	r22, 0x00	; 0
    1412:	08 95       	ret

00001414 <__fp_nan>:
    1414:	9f ef       	ldi	r25, 0xFF	; 255
    1416:	80 ec       	ldi	r24, 0xC0	; 192
    1418:	08 95       	ret

0000141a <__fp_pscA>:
    141a:	00 24       	eor	r0, r0
    141c:	0a 94       	dec	r0
    141e:	16 16       	cp	r1, r22
    1420:	17 06       	cpc	r1, r23
    1422:	18 06       	cpc	r1, r24
    1424:	09 06       	cpc	r0, r25
    1426:	08 95       	ret

00001428 <__fp_pscB>:
    1428:	00 24       	eor	r0, r0
    142a:	0a 94       	dec	r0
    142c:	12 16       	cp	r1, r18
    142e:	13 06       	cpc	r1, r19
    1430:	14 06       	cpc	r1, r20
    1432:	05 06       	cpc	r0, r21
    1434:	08 95       	ret

00001436 <__fp_round>:
    1436:	09 2e       	mov	r0, r25
    1438:	03 94       	inc	r0
    143a:	00 0c       	add	r0, r0
    143c:	11 f4       	brne	.+4      	; 0x1442 <__fp_round+0xc>
    143e:	88 23       	and	r24, r24
    1440:	52 f0       	brmi	.+20     	; 0x1456 <__fp_round+0x20>
    1442:	bb 0f       	add	r27, r27
    1444:	40 f4       	brcc	.+16     	; 0x1456 <__fp_round+0x20>
    1446:	bf 2b       	or	r27, r31
    1448:	11 f4       	brne	.+4      	; 0x144e <__fp_round+0x18>
    144a:	60 ff       	sbrs	r22, 0
    144c:	04 c0       	rjmp	.+8      	; 0x1456 <__fp_round+0x20>
    144e:	6f 5f       	subi	r22, 0xFF	; 255
    1450:	7f 4f       	sbci	r23, 0xFF	; 255
    1452:	8f 4f       	sbci	r24, 0xFF	; 255
    1454:	9f 4f       	sbci	r25, 0xFF	; 255
    1456:	08 95       	ret

00001458 <__fp_split3>:
    1458:	57 fd       	sbrc	r21, 7
    145a:	90 58       	subi	r25, 0x80	; 128
    145c:	44 0f       	add	r20, r20
    145e:	55 1f       	adc	r21, r21
    1460:	59 f0       	breq	.+22     	; 0x1478 <__fp_splitA+0x10>
    1462:	5f 3f       	cpi	r21, 0xFF	; 255
    1464:	71 f0       	breq	.+28     	; 0x1482 <__fp_splitA+0x1a>
    1466:	47 95       	ror	r20

00001468 <__fp_splitA>:
    1468:	88 0f       	add	r24, r24
    146a:	97 fb       	bst	r25, 7
    146c:	99 1f       	adc	r25, r25
    146e:	61 f0       	breq	.+24     	; 0x1488 <__fp_splitA+0x20>
    1470:	9f 3f       	cpi	r25, 0xFF	; 255
    1472:	79 f0       	breq	.+30     	; 0x1492 <__fp_splitA+0x2a>
    1474:	87 95       	ror	r24
    1476:	08 95       	ret
    1478:	12 16       	cp	r1, r18
    147a:	13 06       	cpc	r1, r19
    147c:	14 06       	cpc	r1, r20
    147e:	55 1f       	adc	r21, r21
    1480:	f2 cf       	rjmp	.-28     	; 0x1466 <__fp_split3+0xe>
    1482:	46 95       	lsr	r20
    1484:	f1 df       	rcall	.-30     	; 0x1468 <__fp_splitA>
    1486:	08 c0       	rjmp	.+16     	; 0x1498 <__fp_splitA+0x30>
    1488:	16 16       	cp	r1, r22
    148a:	17 06       	cpc	r1, r23
    148c:	18 06       	cpc	r1, r24
    148e:	99 1f       	adc	r25, r25
    1490:	f1 cf       	rjmp	.-30     	; 0x1474 <__fp_splitA+0xc>
    1492:	86 95       	lsr	r24
    1494:	71 05       	cpc	r23, r1
    1496:	61 05       	cpc	r22, r1
    1498:	08 94       	sec
    149a:	08 95       	ret

0000149c <__fp_zero>:
    149c:	e8 94       	clt

0000149e <__fp_szero>:
    149e:	bb 27       	eor	r27, r27
    14a0:	66 27       	eor	r22, r22
    14a2:	77 27       	eor	r23, r23
    14a4:	cb 01       	movw	r24, r22
    14a6:	97 f9       	bld	r25, 7
    14a8:	08 95       	ret

000014aa <__gesf2>:
    14aa:	8a df       	rcall	.-236    	; 0x13c0 <__fp_cmp>
    14ac:	08 f4       	brcc	.+2      	; 0x14b0 <__gesf2+0x6>
    14ae:	8f ef       	ldi	r24, 0xFF	; 255
    14b0:	08 95       	ret

000014b2 <__mulsf3>:
    14b2:	0b d0       	rcall	.+22     	; 0x14ca <__mulsf3x>
    14b4:	c0 cf       	rjmp	.-128    	; 0x1436 <__fp_round>
    14b6:	b1 df       	rcall	.-158    	; 0x141a <__fp_pscA>
    14b8:	28 f0       	brcs	.+10     	; 0x14c4 <__mulsf3+0x12>
    14ba:	b6 df       	rcall	.-148    	; 0x1428 <__fp_pscB>
    14bc:	18 f0       	brcs	.+6      	; 0x14c4 <__mulsf3+0x12>
    14be:	95 23       	and	r25, r21
    14c0:	09 f0       	breq	.+2      	; 0x14c4 <__mulsf3+0x12>
    14c2:	a2 cf       	rjmp	.-188    	; 0x1408 <__fp_inf>
    14c4:	a7 cf       	rjmp	.-178    	; 0x1414 <__fp_nan>
    14c6:	11 24       	eor	r1, r1
    14c8:	ea cf       	rjmp	.-44     	; 0x149e <__fp_szero>

000014ca <__mulsf3x>:
    14ca:	c6 df       	rcall	.-116    	; 0x1458 <__fp_split3>
    14cc:	a0 f3       	brcs	.-24     	; 0x14b6 <__mulsf3+0x4>

000014ce <__mulsf3_pse>:
    14ce:	95 9f       	mul	r25, r21
    14d0:	d1 f3       	breq	.-12     	; 0x14c6 <__mulsf3+0x14>
    14d2:	95 0f       	add	r25, r21
    14d4:	50 e0       	ldi	r21, 0x00	; 0
    14d6:	55 1f       	adc	r21, r21
    14d8:	62 9f       	mul	r22, r18
    14da:	f0 01       	movw	r30, r0
    14dc:	72 9f       	mul	r23, r18
    14de:	bb 27       	eor	r27, r27
    14e0:	f0 0d       	add	r31, r0
    14e2:	b1 1d       	adc	r27, r1
    14e4:	63 9f       	mul	r22, r19
    14e6:	aa 27       	eor	r26, r26
    14e8:	f0 0d       	add	r31, r0
    14ea:	b1 1d       	adc	r27, r1
    14ec:	aa 1f       	adc	r26, r26
    14ee:	64 9f       	mul	r22, r20
    14f0:	66 27       	eor	r22, r22
    14f2:	b0 0d       	add	r27, r0
    14f4:	a1 1d       	adc	r26, r1
    14f6:	66 1f       	adc	r22, r22
    14f8:	82 9f       	mul	r24, r18
    14fa:	22 27       	eor	r18, r18
    14fc:	b0 0d       	add	r27, r0
    14fe:	a1 1d       	adc	r26, r1
    1500:	62 1f       	adc	r22, r18
    1502:	73 9f       	mul	r23, r19
    1504:	b0 0d       	add	r27, r0
    1506:	a1 1d       	adc	r26, r1
    1508:	62 1f       	adc	r22, r18
    150a:	83 9f       	mul	r24, r19
    150c:	a0 0d       	add	r26, r0
    150e:	61 1d       	adc	r22, r1
    1510:	22 1f       	adc	r18, r18
    1512:	74 9f       	mul	r23, r20
    1514:	33 27       	eor	r19, r19
    1516:	a0 0d       	add	r26, r0
    1518:	61 1d       	adc	r22, r1
    151a:	23 1f       	adc	r18, r19
    151c:	84 9f       	mul	r24, r20
    151e:	60 0d       	add	r22, r0
    1520:	21 1d       	adc	r18, r1
    1522:	82 2f       	mov	r24, r18
    1524:	76 2f       	mov	r23, r22
    1526:	6a 2f       	mov	r22, r26
    1528:	11 24       	eor	r1, r1
    152a:	9f 57       	subi	r25, 0x7F	; 127
    152c:	50 40       	sbci	r21, 0x00	; 0
    152e:	8a f0       	brmi	.+34     	; 0x1552 <__mulsf3_pse+0x84>
    1530:	e1 f0       	breq	.+56     	; 0x156a <__mulsf3_pse+0x9c>
    1532:	88 23       	and	r24, r24
    1534:	4a f0       	brmi	.+18     	; 0x1548 <__mulsf3_pse+0x7a>
    1536:	ee 0f       	add	r30, r30
    1538:	ff 1f       	adc	r31, r31
    153a:	bb 1f       	adc	r27, r27
    153c:	66 1f       	adc	r22, r22
    153e:	77 1f       	adc	r23, r23
    1540:	88 1f       	adc	r24, r24
    1542:	91 50       	subi	r25, 0x01	; 1
    1544:	50 40       	sbci	r21, 0x00	; 0
    1546:	a9 f7       	brne	.-22     	; 0x1532 <__mulsf3_pse+0x64>
    1548:	9e 3f       	cpi	r25, 0xFE	; 254
    154a:	51 05       	cpc	r21, r1
    154c:	70 f0       	brcs	.+28     	; 0x156a <__mulsf3_pse+0x9c>
    154e:	5c cf       	rjmp	.-328    	; 0x1408 <__fp_inf>
    1550:	a6 cf       	rjmp	.-180    	; 0x149e <__fp_szero>
    1552:	5f 3f       	cpi	r21, 0xFF	; 255
    1554:	ec f3       	brlt	.-6      	; 0x1550 <__mulsf3_pse+0x82>
    1556:	98 3e       	cpi	r25, 0xE8	; 232
    1558:	dc f3       	brlt	.-10     	; 0x1550 <__mulsf3_pse+0x82>
    155a:	86 95       	lsr	r24
    155c:	77 95       	ror	r23
    155e:	67 95       	ror	r22
    1560:	b7 95       	ror	r27
    1562:	f7 95       	ror	r31
    1564:	e7 95       	ror	r30
    1566:	9f 5f       	subi	r25, 0xFF	; 255
    1568:	c1 f7       	brne	.-16     	; 0x155a <__mulsf3_pse+0x8c>
    156a:	fe 2b       	or	r31, r30
    156c:	88 0f       	add	r24, r24
    156e:	91 1d       	adc	r25, r1
    1570:	96 95       	lsr	r25
    1572:	87 95       	ror	r24
    1574:	97 f9       	bld	r25, 7
    1576:	08 95       	ret

00001578 <__udivmodsi4>:
    1578:	a1 e2       	ldi	r26, 0x21	; 33
    157a:	1a 2e       	mov	r1, r26
    157c:	aa 1b       	sub	r26, r26
    157e:	bb 1b       	sub	r27, r27
    1580:	fd 01       	movw	r30, r26
    1582:	0d c0       	rjmp	.+26     	; 0x159e <__udivmodsi4_ep>

00001584 <__udivmodsi4_loop>:
    1584:	aa 1f       	adc	r26, r26
    1586:	bb 1f       	adc	r27, r27
    1588:	ee 1f       	adc	r30, r30
    158a:	ff 1f       	adc	r31, r31
    158c:	a2 17       	cp	r26, r18
    158e:	b3 07       	cpc	r27, r19
    1590:	e4 07       	cpc	r30, r20
    1592:	f5 07       	cpc	r31, r21
    1594:	20 f0       	brcs	.+8      	; 0x159e <__udivmodsi4_ep>
    1596:	a2 1b       	sub	r26, r18
    1598:	b3 0b       	sbc	r27, r19
    159a:	e4 0b       	sbc	r30, r20
    159c:	f5 0b       	sbc	r31, r21

0000159e <__udivmodsi4_ep>:
    159e:	66 1f       	adc	r22, r22
    15a0:	77 1f       	adc	r23, r23
    15a2:	88 1f       	adc	r24, r24
    15a4:	99 1f       	adc	r25, r25
    15a6:	1a 94       	dec	r1
    15a8:	69 f7       	brne	.-38     	; 0x1584 <__udivmodsi4_loop>
    15aa:	60 95       	com	r22
    15ac:	70 95       	com	r23
    15ae:	80 95       	com	r24
    15b0:	90 95       	com	r25
    15b2:	9b 01       	movw	r18, r22
    15b4:	ac 01       	movw	r20, r24
    15b6:	bd 01       	movw	r22, r26
    15b8:	cf 01       	movw	r24, r30
    15ba:	08 95       	ret

000015bc <_exit>:
    15bc:	f8 94       	cli

000015be <__stop_program>:
    15be:	ff cf       	rjmp	.-2      	; 0x15be <__stop_program>
